
ARDAT_master.elf:     file format elf32-avr

Sections:
Idx Name          Size      VMA       LMA       File off  Algn
  0 .text         000015cc  00000000  00000000  00000094  2**1
                  CONTENTS, ALLOC, LOAD, READONLY, CODE
  1 .data         000000e0  00800060  000015cc  00001660  2**0
                  CONTENTS, ALLOC, LOAD, DATA
  2 .bss          00000002  00800140  00800140  00001740  2**0
                  ALLOC
  3 .stab         000006cc  00000000  00000000  00001740  2**2
                  CONTENTS, READONLY, DEBUGGING
  4 .stabstr      00000054  00000000  00000000  00001e0c  2**0
                  CONTENTS, READONLY, DEBUGGING
  5 .comment      00000011  00000000  00000000  00001e60  2**0
                  CONTENTS, READONLY

Disassembly of section .text:

00000000 <__vectors>:
       0:	0c 94 2a 00 	jmp	0x54	; 0x54 <__ctors_end>
       4:	0c 94 47 00 	jmp	0x8e	; 0x8e <__bad_interrupt>
       8:	0c 94 47 00 	jmp	0x8e	; 0x8e <__bad_interrupt>
       c:	0c 94 47 00 	jmp	0x8e	; 0x8e <__bad_interrupt>
      10:	0c 94 47 00 	jmp	0x8e	; 0x8e <__bad_interrupt>
      14:	0c 94 47 00 	jmp	0x8e	; 0x8e <__bad_interrupt>
      18:	0c 94 47 00 	jmp	0x8e	; 0x8e <__bad_interrupt>
      1c:	0c 94 47 00 	jmp	0x8e	; 0x8e <__bad_interrupt>
      20:	0c 94 47 00 	jmp	0x8e	; 0x8e <__bad_interrupt>
      24:	0c 94 47 00 	jmp	0x8e	; 0x8e <__bad_interrupt>
      28:	0c 94 47 00 	jmp	0x8e	; 0x8e <__bad_interrupt>
      2c:	0c 94 47 00 	jmp	0x8e	; 0x8e <__bad_interrupt>
      30:	0c 94 47 00 	jmp	0x8e	; 0x8e <__bad_interrupt>
      34:	0c 94 47 00 	jmp	0x8e	; 0x8e <__bad_interrupt>
      38:	0c 94 47 00 	jmp	0x8e	; 0x8e <__bad_interrupt>
      3c:	0c 94 47 00 	jmp	0x8e	; 0x8e <__bad_interrupt>
      40:	0c 94 47 00 	jmp	0x8e	; 0x8e <__bad_interrupt>
      44:	0c 94 47 00 	jmp	0x8e	; 0x8e <__bad_interrupt>
      48:	0c 94 47 00 	jmp	0x8e	; 0x8e <__bad_interrupt>
      4c:	0c 94 47 00 	jmp	0x8e	; 0x8e <__bad_interrupt>
      50:	0c 94 47 00 	jmp	0x8e	; 0x8e <__bad_interrupt>

00000054 <__ctors_end>:
      54:	11 24       	eor	r1, r1
      56:	1f be       	out	0x3f, r1	; 63
      58:	cf e5       	ldi	r28, 0x5F	; 95
      5a:	d8 e0       	ldi	r29, 0x08	; 8
      5c:	de bf       	out	0x3e, r29	; 62
      5e:	cd bf       	out	0x3d, r28	; 61

00000060 <__do_copy_data>:
      60:	11 e0       	ldi	r17, 0x01	; 1
      62:	a0 e6       	ldi	r26, 0x60	; 96
      64:	b0 e0       	ldi	r27, 0x00	; 0
      66:	ec ec       	ldi	r30, 0xCC	; 204
      68:	f5 e1       	ldi	r31, 0x15	; 21
      6a:	02 c0       	rjmp	.+4      	; 0x70 <__do_copy_data+0x10>
      6c:	05 90       	lpm	r0, Z+
      6e:	0d 92       	st	X+, r0
      70:	a0 34       	cpi	r26, 0x40	; 64
      72:	b1 07       	cpc	r27, r17
      74:	d9 f7       	brne	.-10     	; 0x6c <__do_copy_data+0xc>

00000076 <__do_clear_bss>:
      76:	11 e0       	ldi	r17, 0x01	; 1
      78:	a0 e4       	ldi	r26, 0x40	; 64
      7a:	b1 e0       	ldi	r27, 0x01	; 1
      7c:	01 c0       	rjmp	.+2      	; 0x80 <.do_clear_bss_start>

0000007e <.do_clear_bss_loop>:
      7e:	1d 92       	st	X+, r1

00000080 <.do_clear_bss_start>:
      80:	a2 34       	cpi	r26, 0x42	; 66
      82:	b1 07       	cpc	r27, r17
      84:	e1 f7       	brne	.-8      	; 0x7e <.do_clear_bss_loop>
      86:	0e 94 e2 09 	call	0x13c4	; 0x13c4 <main>
      8a:	0c 94 e4 0a 	jmp	0x15c8	; 0x15c8 <_exit>

0000008e <__bad_interrupt>:
      8e:	0c 94 00 00 	jmp	0	; 0x0 <__vectors>

00000092 <ADC_init>:
      92:	3e 9a       	sbi	0x07, 6	; 7
      94:	86 b1       	in	r24, 0x06	; 6
      96:	87 68       	ori	r24, 0x87	; 135
      98:	86 b9       	out	0x06, r24	; 6
      9a:	08 95       	ret

0000009c <readADC>:
      9c:	1f 93       	push	r17
      9e:	cf 93       	push	r28
      a0:	df 93       	push	r29
      a2:	00 d0       	rcall	.+0      	; 0xa4 <readADC+0x8>
      a4:	00 d0       	rcall	.+0      	; 0xa6 <readADC+0xa>
      a6:	cd b7       	in	r28, 0x3d	; 61
      a8:	de b7       	in	r29, 0x3e	; 62
      aa:	27 b1       	in	r18, 0x07	; 7
      ac:	87 70       	andi	r24, 0x07	; 7
      ae:	99 27       	eor	r25, r25
      b0:	28 2b       	or	r18, r24
      b2:	27 b9       	out	0x07, r18	; 7
      b4:	36 9a       	sbi	0x06, 6	; 6
      b6:	34 9b       	sbis	0x06, 4	; 6
      b8:	fe cf       	rjmp	.-4      	; 0xb6 <readADC+0x1a>
      ba:	34 9a       	sbi	0x06, 4	; 6
      bc:	64 b1       	in	r22, 0x04	; 4
      be:	75 b1       	in	r23, 0x05	; 5
      c0:	80 e0       	ldi	r24, 0x00	; 0
      c2:	90 e0       	ldi	r25, 0x00	; 0
      c4:	0e 94 db 07 	call	0xfb6	; 0xfb6 <__floatunsisf>
      c8:	20 e0       	ldi	r18, 0x00	; 0
      ca:	30 e0       	ldi	r19, 0x00	; 0
      cc:	40 e8       	ldi	r20, 0x80	; 128
      ce:	5a e3       	ldi	r21, 0x3A	; 58
      d0:	0e 94 1c 06 	call	0xc38	; 0xc38 <__mulsf3>
      d4:	17 b8       	out	0x07, r1	; 7
      d6:	16 b8       	out	0x06, r1	; 6
      d8:	69 83       	std	Y+1, r22	; 0x01
      da:	7a 83       	std	Y+2, r23	; 0x02
      dc:	8b 83       	std	Y+3, r24	; 0x03
      de:	9c 83       	std	Y+4, r25	; 0x04
      e0:	0e 94 49 00 	call	0x92	; 0x92 <ADC_init>
      e4:	20 e0       	ldi	r18, 0x00	; 0
      e6:	30 e0       	ldi	r19, 0x00	; 0
      e8:	40 ea       	ldi	r20, 0xA0	; 160
      ea:	50 e4       	ldi	r21, 0x40	; 64
      ec:	69 81       	ldd	r22, Y+1	; 0x01
      ee:	7a 81       	ldd	r23, Y+2	; 0x02
      f0:	8b 81       	ldd	r24, Y+3	; 0x03
      f2:	9c 81       	ldd	r25, Y+4	; 0x04
      f4:	0e 94 1c 06 	call	0xc38	; 0xc38 <__mulsf3>
      f8:	0f 90       	pop	r0
      fa:	0f 90       	pop	r0
      fc:	0f 90       	pop	r0
      fe:	0f 90       	pop	r0
     100:	df 91       	pop	r29
     102:	cf 91       	pop	r28
     104:	1f 91       	pop	r17
     106:	08 95       	ret

00000108 <mot_init>:
     108:	81 b3       	in	r24, 0x11	; 17
     10a:	80 67       	ori	r24, 0x70	; 112
     10c:	81 bb       	out	0x11, r24	; 17
     10e:	84 b3       	in	r24, 0x14	; 20
     110:	8c 61       	ori	r24, 0x1C	; 28
     112:	84 bb       	out	0x14, r24	; 20
     114:	08 95       	ret

00000116 <mot_pwm_init>:
     116:	8f b5       	in	r24, 0x2f	; 47
     118:	81 6a       	ori	r24, 0xA1	; 161
     11a:	8f bd       	out	0x2f, r24	; 47
     11c:	8e b5       	in	r24, 0x2e	; 46
     11e:	8a 60       	ori	r24, 0x0A	; 10
     120:	8e bd       	out	0x2e, r24	; 46
     122:	8e e3       	ldi	r24, 0x3E	; 62
     124:	90 e0       	ldi	r25, 0x00	; 0
     126:	97 bd       	out	0x27, r25	; 39
     128:	86 bd       	out	0x26, r24	; 38
     12a:	08 95       	ret

0000012c <couvat_vlevo>:
     12c:	80 e3       	ldi	r24, 0x30	; 48
     12e:	82 bb       	out	0x12, r24	; 18
     130:	88 e1       	ldi	r24, 0x18	; 24
     132:	85 bb       	out	0x15, r24	; 21
     134:	2f ef       	ldi	r18, 0xFF	; 255
     136:	83 ed       	ldi	r24, 0xD3	; 211
     138:	90 e3       	ldi	r25, 0x30	; 48
     13a:	21 50       	subi	r18, 0x01	; 1
     13c:	80 40       	sbci	r24, 0x00	; 0
     13e:	90 40       	sbci	r25, 0x00	; 0
     140:	e1 f7       	brne	.-8      	; 0x13a <couvat_vlevo+0xe>
     142:	00 c0       	rjmp	.+0      	; 0x144 <couvat_vlevo+0x18>
     144:	00 00       	nop
     146:	ac 98       	cbi	0x15, 4	; 21
     148:	2f ef       	ldi	r18, 0xFF	; 255
     14a:	89 e6       	ldi	r24, 0x69	; 105
     14c:	98 e1       	ldi	r25, 0x18	; 24
     14e:	21 50       	subi	r18, 0x01	; 1
     150:	80 40       	sbci	r24, 0x00	; 0
     152:	90 40       	sbci	r25, 0x00	; 0
     154:	e1 f7       	brne	.-8      	; 0x14e <couvat_vlevo+0x22>
     156:	00 c0       	rjmp	.+0      	; 0x158 <couvat_vlevo+0x2c>
     158:	00 00       	nop
     15a:	08 95       	ret

0000015c <motortest>:
     15c:	82 b3       	in	r24, 0x12	; 18
     15e:	80 67       	ori	r24, 0x70	; 112
     160:	82 bb       	out	0x12, r24	; 18
     162:	ab 9a       	sbi	0x15, 3	; 21
     164:	2f ef       	ldi	r18, 0xFF	; 255
     166:	83 ed       	ldi	r24, 0xD3	; 211
     168:	90 e3       	ldi	r25, 0x30	; 48
     16a:	21 50       	subi	r18, 0x01	; 1
     16c:	80 40       	sbci	r24, 0x00	; 0
     16e:	90 40       	sbci	r25, 0x00	; 0
     170:	e1 f7       	brne	.-8      	; 0x16a <motortest+0xe>
     172:	00 c0       	rjmp	.+0      	; 0x174 <motortest+0x18>
     174:	00 00       	nop
     176:	96 98       	cbi	0x12, 6	; 18
     178:	ab 98       	cbi	0x15, 3	; 21
     17a:	85 b3       	in	r24, 0x15	; 21
     17c:	84 61       	ori	r24, 0x14	; 20
     17e:	85 bb       	out	0x15, r24	; 21
     180:	2f ef       	ldi	r18, 0xFF	; 255
     182:	83 ed       	ldi	r24, 0xD3	; 211
     184:	90 e3       	ldi	r25, 0x30	; 48
     186:	21 50       	subi	r18, 0x01	; 1
     188:	80 40       	sbci	r24, 0x00	; 0
     18a:	90 40       	sbci	r25, 0x00	; 0
     18c:	e1 f7       	brne	.-8      	; 0x186 <motortest+0x2a>
     18e:	00 c0       	rjmp	.+0      	; 0x190 <motortest+0x34>
     190:	00 00       	nop
     192:	15 ba       	out	0x15, r1	; 21
     194:	08 95       	ret

00000196 <motpwmtest>:
     196:	8f ef       	ldi	r24, 0xFF	; 255
     198:	90 e0       	ldi	r25, 0x00	; 0
     19a:	99 bd       	out	0x29, r25	; 41
     19c:	88 bd       	out	0x28, r24	; 40
     19e:	0e 94 84 00 	call	0x108	; 0x108 <mot_init>
     1a2:	80 e4       	ldi	r24, 0x40	; 64
     1a4:	82 bb       	out	0x12, r24	; 18
     1a6:	84 e0       	ldi	r24, 0x04	; 4
     1a8:	85 bb       	out	0x15, r24	; 21
     1aa:	0e 94 8b 00 	call	0x116	; 0x116 <mot_pwm_init>
     1ae:	c0 e0       	ldi	r28, 0x00	; 0
     1b0:	d0 e0       	ldi	r29, 0x00	; 0
     1b2:	cf 99       	sbic	0x19, 7	; 25
     1b4:	02 c0       	rjmp	.+4      	; 0x1ba <motpwmtest+0x24>
     1b6:	21 96       	adiw	r28, 0x01	; 1
     1b8:	02 c0       	rjmp	.+4      	; 0x1be <motpwmtest+0x28>
     1ba:	ce 9b       	sbis	0x19, 6	; 25
     1bc:	21 97       	sbiw	r28, 0x01	; 1
     1be:	db bd       	out	0x2b, r29	; 43
     1c0:	ca bd       	out	0x2a, r28	; 42
     1c2:	65 e0       	ldi	r22, 0x05	; 5
     1c4:	70 e0       	ldi	r23, 0x00	; 0
     1c6:	ce 01       	movw	r24, r28
     1c8:	0e 94 1b 04 	call	0x836	; 0x836 <LCDWriteInt>
     1cc:	8f e1       	ldi	r24, 0x1F	; 31
     1ce:	9e e4       	ldi	r25, 0x4E	; 78
     1d0:	01 97       	sbiw	r24, 0x01	; 1
     1d2:	f1 f7       	brne	.-4      	; 0x1d0 <motpwmtest+0x3a>
     1d4:	00 c0       	rjmp	.+0      	; 0x1d6 <motpwmtest+0x40>
     1d6:	00 00       	nop
     1d8:	60 e0       	ldi	r22, 0x00	; 0
     1da:	81 e0       	ldi	r24, 0x01	; 1
     1dc:	0e 94 ac 03 	call	0x758	; 0x758 <LCDByte>
     1e0:	e8 cf       	rjmp	.-48     	; 0x1b2 <motpwmtest+0x1c>

000001e2 <SPI_init>:
     1e2:	80 eb       	ldi	r24, 0xB0	; 176
     1e4:	87 bb       	out	0x17, r24	; 23
     1e6:	81 e5       	ldi	r24, 0x51	; 81
     1e8:	8d b9       	out	0x0d, r24	; 13
     1ea:	08 95       	ret

000001ec <SPI_read>:
     1ec:	77 9b       	sbis	0x0e, 7	; 14
     1ee:	fe cf       	rjmp	.-4      	; 0x1ec <SPI_read>
     1f0:	8f b1       	in	r24, 0x0f	; 15
     1f2:	90 e0       	ldi	r25, 0x00	; 0
     1f4:	08 95       	ret

000001f6 <SPI_write>:
     1f6:	8f b9       	out	0x0f, r24	; 15
     1f8:	77 9b       	sbis	0x0e, 7	; 14
     1fa:	fe cf       	rjmp	.-4      	; 0x1f8 <SPI_write+0x2>
     1fc:	08 95       	ret

000001fe <servo>:
     1fe:	cf 93       	push	r28
     200:	df 93       	push	r29
     202:	ec 01       	movw	r28, r24
     204:	81 e0       	ldi	r24, 0x01	; 1
     206:	90 e0       	ldi	r25, 0x00	; 0
     208:	0e 94 fb 00 	call	0x1f6	; 0x1f6 <SPI_write>
     20c:	ce 01       	movw	r24, r28
     20e:	df 91       	pop	r29
     210:	cf 91       	pop	r28
     212:	0c 94 fb 00 	jmp	0x1f6	; 0x1f6 <SPI_write>

00000216 <slave_analog_read>:
     216:	cf 93       	push	r28
     218:	df 93       	push	r29
     21a:	ec 01       	movw	r28, r24
     21c:	82 e0       	ldi	r24, 0x02	; 2
     21e:	90 e0       	ldi	r25, 0x00	; 0
     220:	0e 94 fb 00 	call	0x1f6	; 0x1f6 <SPI_write>
     224:	ce 01       	movw	r24, r28
     226:	0e 94 fb 00 	call	0x1f6	; 0x1f6 <SPI_write>
     22a:	df 91       	pop	r29
     22c:	cf 91       	pop	r28
     22e:	0c 94 f6 00 	jmp	0x1ec	; 0x1ec <SPI_read>

00000232 <setPin>:
     232:	ef 92       	push	r14
     234:	ff 92       	push	r15
     236:	0f 93       	push	r16
     238:	1f 93       	push	r17
     23a:	cf 93       	push	r28
     23c:	df 93       	push	r29
     23e:	ec 01       	movw	r28, r24
     240:	7b 01       	movw	r14, r22
     242:	8a 01       	movw	r16, r20
     244:	83 e0       	ldi	r24, 0x03	; 3
     246:	90 e0       	ldi	r25, 0x00	; 0
     248:	0e 94 fb 00 	call	0x1f6	; 0x1f6 <SPI_write>
     24c:	ce 01       	movw	r24, r28
     24e:	0e 94 fb 00 	call	0x1f6	; 0x1f6 <SPI_write>
     252:	c7 01       	movw	r24, r14
     254:	0e 94 fb 00 	call	0x1f6	; 0x1f6 <SPI_write>
     258:	c8 01       	movw	r24, r16
     25a:	df 91       	pop	r29
     25c:	cf 91       	pop	r28
     25e:	1f 91       	pop	r17
     260:	0f 91       	pop	r16
     262:	ff 90       	pop	r15
     264:	ef 90       	pop	r14
     266:	0c 94 fb 00 	jmp	0x1f6	; 0x1f6 <SPI_write>

0000026a <readPin>:
     26a:	0f 93       	push	r16
     26c:	1f 93       	push	r17
     26e:	cf 93       	push	r28
     270:	df 93       	push	r29
     272:	ec 01       	movw	r28, r24
     274:	8b 01       	movw	r16, r22
     276:	84 e0       	ldi	r24, 0x04	; 4
     278:	90 e0       	ldi	r25, 0x00	; 0
     27a:	0e 94 fb 00 	call	0x1f6	; 0x1f6 <SPI_write>
     27e:	ce 01       	movw	r24, r28
     280:	0e 94 fb 00 	call	0x1f6	; 0x1f6 <SPI_write>
     284:	c8 01       	movw	r24, r16
     286:	0e 94 fb 00 	call	0x1f6	; 0x1f6 <SPI_write>
     28a:	df 91       	pop	r29
     28c:	cf 91       	pop	r28
     28e:	1f 91       	pop	r17
     290:	0f 91       	pop	r16
     292:	0c 94 f6 00 	jmp	0x1ec	; 0x1ec <SPI_read>

00000296 <init_usart>:
     296:	89 9a       	sbi	0x11, 1	; 17
     298:	86 e0       	ldi	r24, 0x06	; 6
     29a:	89 b9       	out	0x09, r24	; 9
     29c:	88 e1       	ldi	r24, 0x18	; 24
     29e:	8a b9       	out	0x0a, r24	; 10
     2a0:	86 e8       	ldi	r24, 0x86	; 134
     2a2:	80 bd       	out	0x20, r24	; 32
     2a4:	08 95       	ret

000002a6 <usart_send_int>:
     2a6:	5d 9b       	sbis	0x0b, 5	; 11
     2a8:	fe cf       	rjmp	.-4      	; 0x2a6 <usart_send_int>
     2aa:	8c b9       	out	0x0c, r24	; 12
     2ac:	08 95       	ret

000002ae <usart_receive_int>:
     2ae:	5f 9b       	sbis	0x0b, 7	; 11
     2b0:	fe cf       	rjmp	.-4      	; 0x2ae <usart_receive_int>
     2b2:	8c b1       	in	r24, 0x0c	; 12
     2b4:	90 e0       	ldi	r25, 0x00	; 0
     2b6:	08 95       	ret

000002b8 <servotest>:
     2b8:	c7 e0       	ldi	r28, 0x07	; 7
     2ba:	d0 e0       	ldi	r29, 0x00	; 0
     2bc:	cf 99       	sbic	0x19, 7	; 25
     2be:	02 c0       	rjmp	.+4      	; 0x2c4 <servotest+0xc>
     2c0:	21 96       	adiw	r28, 0x01	; 1
     2c2:	02 c0       	rjmp	.+4      	; 0x2c8 <servotest+0x10>
     2c4:	ce 9b       	sbis	0x19, 6	; 25
     2c6:	21 97       	sbiw	r28, 0x01	; 1
     2c8:	ce 01       	movw	r24, r28
     2ca:	0e 94 ff 00 	call	0x1fe	; 0x1fe <servo>
     2ce:	63 e0       	ldi	r22, 0x03	; 3
     2d0:	70 e0       	ldi	r23, 0x00	; 0
     2d2:	ce 01       	movw	r24, r28
     2d4:	0e 94 1b 04 	call	0x836	; 0x836 <LCDWriteInt>
     2d8:	9f 99       	sbic	0x13, 7	; 19
     2da:	08 c0       	rjmp	.+16     	; 0x2ec <servotest+0x34>
     2dc:	61 e0       	ldi	r22, 0x01	; 1
     2de:	80 e0       	ldi	r24, 0x00	; 0
     2e0:	0e 94 65 04 	call	0x8ca	; 0x8ca <LCDGotoXY>
     2e4:	88 e6       	ldi	r24, 0x68	; 104
     2e6:	90 e0       	ldi	r25, 0x00	; 0
     2e8:	0e 94 0e 04 	call	0x81c	; 0x81c <LCDWriteString>
     2ec:	2f ef       	ldi	r18, 0xFF	; 255
     2ee:	89 ef       	ldi	r24, 0xF9	; 249
     2f0:	90 e0       	ldi	r25, 0x00	; 0
     2f2:	21 50       	subi	r18, 0x01	; 1
     2f4:	80 40       	sbci	r24, 0x00	; 0
     2f6:	90 40       	sbci	r25, 0x00	; 0
     2f8:	e1 f7       	brne	.-8      	; 0x2f2 <servotest+0x3a>
     2fa:	00 c0       	rjmp	.+0      	; 0x2fc <servotest+0x44>
     2fc:	00 00       	nop
     2fe:	60 e0       	ldi	r22, 0x00	; 0
     300:	81 e0       	ldi	r24, 0x01	; 1
     302:	0e 94 ac 03 	call	0x758	; 0x758 <LCDByte>
     306:	da cf       	rjmp	.-76     	; 0x2bc <servotest+0x4>

00000308 <vyhybejse>:
     308:	0e 94 4b 01 	call	0x296	; 0x296 <init_usart>
     30c:	0e 94 84 00 	call	0x108	; 0x108 <mot_init>
     310:	2f ef       	ldi	r18, 0xFF	; 255
     312:	33 ed       	ldi	r19, 0xD3	; 211
     314:	80 e3       	ldi	r24, 0x30	; 48
     316:	21 50       	subi	r18, 0x01	; 1
     318:	30 40       	sbci	r19, 0x00	; 0
     31a:	80 40       	sbci	r24, 0x00	; 0
     31c:	e1 f7       	brne	.-8      	; 0x316 <vyhybejse+0xe>
     31e:	00 c0       	rjmp	.+0      	; 0x320 <vyhybejse+0x18>
     320:	00 00       	nop
     322:	c0 e3       	ldi	r28, 0x30	; 48
     324:	d8 e1       	ldi	r29, 0x18	; 24
     326:	96 98       	cbi	0x12, 6	; 18
     328:	c2 bb       	out	0x12, r28	; 18
     32a:	cf 99       	sbic	0x19, 7	; 25
     32c:	0b c0       	rjmp	.+22     	; 0x344 <vyhybejse+0x3c>
     32e:	96 9a       	sbi	0x12, 6	; 18
     330:	ab 9a       	sbi	0x15, 3	; 21
     332:	81 e7       	ldi	r24, 0x71	; 113
     334:	90 e0       	ldi	r25, 0x00	; 0
     336:	0e 94 0e 04 	call	0x81c	; 0x81c <LCDWriteString>
     33a:	cf 9b       	sbis	0x19, 7	; 25
     33c:	fe cf       	rjmp	.-4      	; 0x33a <vyhybejse+0x32>
     33e:	96 98       	cbi	0x12, 6	; 18
     340:	ab 98       	cbi	0x15, 3	; 21
     342:	60 c0       	rjmp	.+192    	; 0x404 <vyhybejse+0xfc>
     344:	ce 99       	sbic	0x19, 6	; 25
     346:	0a c0       	rjmp	.+20     	; 0x35c <vyhybejse+0x54>
     348:	aa 9a       	sbi	0x15, 2	; 21
     34a:	ac 9a       	sbi	0x15, 4	; 21
     34c:	8b e7       	ldi	r24, 0x7B	; 123
     34e:	90 e0       	ldi	r25, 0x00	; 0
     350:	0e 94 0e 04 	call	0x81c	; 0x81c <LCDWriteString>
     354:	ce 9b       	sbis	0x19, 6	; 25
     356:	fe cf       	rjmp	.-4      	; 0x354 <vyhybejse+0x4c>
     358:	aa 98       	cbi	0x15, 2	; 21
     35a:	54 c0       	rjmp	.+168    	; 0x404 <vyhybejse+0xfc>
     35c:	9f 99       	sbic	0x13, 7	; 19
     35e:	4c c0       	rjmp	.+152    	; 0x3f8 <vyhybejse+0xf0>
     360:	85 e8       	ldi	r24, 0x85	; 133
     362:	90 e0       	ldi	r25, 0x00	; 0
     364:	0e 94 0e 04 	call	0x81c	; 0x81c <LCDWriteString>
     368:	8f e0       	ldi	r24, 0x0F	; 15
     36a:	90 e0       	ldi	r25, 0x00	; 0
     36c:	0e 94 ff 00 	call	0x1fe	; 0x1fe <servo>
     370:	9f ef       	ldi	r25, 0xFF	; 255
     372:	29 e6       	ldi	r18, 0x69	; 105
     374:	38 e1       	ldi	r19, 0x18	; 24
     376:	91 50       	subi	r25, 0x01	; 1
     378:	20 40       	sbci	r18, 0x00	; 0
     37a:	30 40       	sbci	r19, 0x00	; 0
     37c:	e1 f7       	brne	.-8      	; 0x376 <vyhybejse+0x6e>
     37e:	00 c0       	rjmp	.+0      	; 0x380 <vyhybejse+0x78>
     380:	00 00       	nop
     382:	13 b3       	in	r17, 0x13	; 19
     384:	8d e1       	ldi	r24, 0x1D	; 29
     386:	90 e0       	ldi	r25, 0x00	; 0
     388:	0e 94 ff 00 	call	0x1fe	; 0x1fe <servo>
     38c:	8f ef       	ldi	r24, 0xFF	; 255
     38e:	99 e6       	ldi	r25, 0x69	; 105
     390:	28 e1       	ldi	r18, 0x18	; 24
     392:	81 50       	subi	r24, 0x01	; 1
     394:	90 40       	sbci	r25, 0x00	; 0
     396:	20 40       	sbci	r18, 0x00	; 0
     398:	e1 f7       	brne	.-8      	; 0x392 <vyhybejse+0x8a>
     39a:	00 c0       	rjmp	.+0      	; 0x39c <vyhybejse+0x94>
     39c:	00 00       	nop
     39e:	83 b3       	in	r24, 0x13	; 19
     3a0:	80 78       	andi	r24, 0x80	; 128
     3a2:	d5 bb       	out	0x15, r29	; 21
     3a4:	3f ef       	ldi	r19, 0xFF	; 255
     3a6:	93 ed       	ldi	r25, 0xD3	; 211
     3a8:	20 e3       	ldi	r18, 0x30	; 48
     3aa:	31 50       	subi	r19, 0x01	; 1
     3ac:	90 40       	sbci	r25, 0x00	; 0
     3ae:	20 40       	sbci	r18, 0x00	; 0
     3b0:	e1 f7       	brne	.-8      	; 0x3aa <vyhybejse+0xa2>
     3b2:	00 c0       	rjmp	.+0      	; 0x3b4 <vyhybejse+0xac>
     3b4:	00 00       	nop
     3b6:	17 fd       	sbrc	r17, 7
     3b8:	09 c0       	rjmp	.+18     	; 0x3cc <vyhybejse+0xc4>
     3ba:	ab 98       	cbi	0x15, 3	; 21
     3bc:	3f ef       	ldi	r19, 0xFF	; 255
     3be:	89 e6       	ldi	r24, 0x69	; 105
     3c0:	98 e1       	ldi	r25, 0x18	; 24
     3c2:	31 50       	subi	r19, 0x01	; 1
     3c4:	80 40       	sbci	r24, 0x00	; 0
     3c6:	90 40       	sbci	r25, 0x00	; 0
     3c8:	e1 f7       	brne	.-8      	; 0x3c2 <vyhybejse+0xba>
     3ca:	12 c0       	rjmp	.+36     	; 0x3f0 <vyhybejse+0xe8>
     3cc:	ac 98       	cbi	0x15, 4	; 21
     3ce:	81 11       	cpse	r24, r1
     3d0:	08 c0       	rjmp	.+16     	; 0x3e2 <vyhybejse+0xda>
     3d2:	2f ef       	ldi	r18, 0xFF	; 255
     3d4:	39 e6       	ldi	r19, 0x69	; 105
     3d6:	88 e1       	ldi	r24, 0x18	; 24
     3d8:	21 50       	subi	r18, 0x01	; 1
     3da:	30 40       	sbci	r19, 0x00	; 0
     3dc:	80 40       	sbci	r24, 0x00	; 0
     3de:	e1 f7       	brne	.-8      	; 0x3d8 <vyhybejse+0xd0>
     3e0:	07 c0       	rjmp	.+14     	; 0x3f0 <vyhybejse+0xe8>
     3e2:	9f ef       	ldi	r25, 0xFF	; 255
     3e4:	29 e6       	ldi	r18, 0x69	; 105
     3e6:	38 e1       	ldi	r19, 0x18	; 24
     3e8:	91 50       	subi	r25, 0x01	; 1
     3ea:	20 40       	sbci	r18, 0x00	; 0
     3ec:	30 40       	sbci	r19, 0x00	; 0
     3ee:	e1 f7       	brne	.-8      	; 0x3e8 <vyhybejse+0xe0>
     3f0:	00 c0       	rjmp	.+0      	; 0x3f2 <vyhybejse+0xea>
     3f2:	00 00       	nop
     3f4:	15 ba       	out	0x15, r1	; 21
     3f6:	06 c0       	rjmp	.+12     	; 0x404 <vyhybejse+0xfc>
     3f8:	85 e9       	ldi	r24, 0x95	; 149
     3fa:	90 e0       	ldi	r25, 0x00	; 0
     3fc:	0e 94 0e 04 	call	0x81c	; 0x81c <LCDWriteString>
     400:	96 9a       	sbi	0x12, 6	; 18
     402:	aa 9a       	sbi	0x15, 2	; 21
     404:	8f e9       	ldi	r24, 0x9F	; 159
     406:	9f e0       	ldi	r25, 0x0F	; 15
     408:	01 97       	sbiw	r24, 0x01	; 1
     40a:	f1 f7       	brne	.-4      	; 0x408 <vyhybejse+0x100>
     40c:	00 c0       	rjmp	.+0      	; 0x40e <vyhybejse+0x106>
     40e:	00 00       	nop
     410:	60 e0       	ldi	r22, 0x00	; 0
     412:	81 e0       	ldi	r24, 0x01	; 1
     414:	0e 94 ac 03 	call	0x758	; 0x758 <LCDByte>
     418:	15 ba       	out	0x15, r1	; 21
     41a:	86 e1       	ldi	r24, 0x16	; 22
     41c:	90 e0       	ldi	r25, 0x00	; 0
     41e:	0e 94 ff 00 	call	0x1fe	; 0x1fe <servo>
     422:	81 cf       	rjmp	.-254    	; 0x326 <vyhybejse+0x1e>

00000424 <LCD_write_comm>:
     424:	00 97       	sbiw	r24, 0x00	; 0
     426:	19 f4       	brne	.+6      	; 0x42e <LCD_write_comm+0xa>
     428:	89 e9       	ldi	r24, 0x99	; 153
     42a:	90 e0       	ldi	r25, 0x00	; 0
     42c:	39 c0       	rjmp	.+114    	; 0x4a0 <LCD_write_comm+0x7c>
     42e:	81 30       	cpi	r24, 0x01	; 1
     430:	91 05       	cpc	r25, r1
     432:	19 f4       	brne	.+6      	; 0x43a <LCD_write_comm+0x16>
     434:	89 ea       	ldi	r24, 0xA9	; 169
     436:	90 e0       	ldi	r25, 0x00	; 0
     438:	05 c0       	rjmp	.+10     	; 0x444 <LCD_write_comm+0x20>
     43a:	82 30       	cpi	r24, 0x02	; 2
     43c:	91 05       	cpc	r25, r1
     43e:	59 f4       	brne	.+22     	; 0x456 <LCD_write_comm+0x32>
     440:	89 eb       	ldi	r24, 0xB9	; 185
     442:	90 e0       	ldi	r25, 0x00	; 0
     444:	0e 94 0e 04 	call	0x81c	; 0x81c <LCDWriteString>
     448:	61 e0       	ldi	r22, 0x01	; 1
     44a:	8e e0       	ldi	r24, 0x0E	; 14
     44c:	0e 94 65 04 	call	0x8ca	; 0x8ca <LCDGotoXY>
     450:	86 ea       	ldi	r24, 0xA6	; 166
     452:	90 e0       	ldi	r25, 0x00	; 0
     454:	32 c0       	rjmp	.+100    	; 0x4ba <LCD_write_comm+0x96>
     456:	83 30       	cpi	r24, 0x03	; 3
     458:	91 05       	cpc	r25, r1
     45a:	19 f4       	brne	.+6      	; 0x462 <LCD_write_comm+0x3e>
     45c:	86 ec       	ldi	r24, 0xC6	; 198
     45e:	90 e0       	ldi	r25, 0x00	; 0
     460:	17 c0       	rjmp	.+46     	; 0x490 <LCD_write_comm+0x6c>
     462:	84 30       	cpi	r24, 0x04	; 4
     464:	91 05       	cpc	r25, r1
     466:	19 f4       	brne	.+6      	; 0x46e <LCD_write_comm+0x4a>
     468:	89 ed       	ldi	r24, 0xD9	; 217
     46a:	90 e0       	ldi	r25, 0x00	; 0
     46c:	11 c0       	rjmp	.+34     	; 0x490 <LCD_write_comm+0x6c>
     46e:	85 30       	cpi	r24, 0x05	; 5
     470:	91 05       	cpc	r25, r1
     472:	19 f4       	brne	.+6      	; 0x47a <LCD_write_comm+0x56>
     474:	8b ee       	ldi	r24, 0xEB	; 235
     476:	90 e0       	ldi	r25, 0x00	; 0
     478:	0b c0       	rjmp	.+22     	; 0x490 <LCD_write_comm+0x6c>
     47a:	86 30       	cpi	r24, 0x06	; 6
     47c:	91 05       	cpc	r25, r1
     47e:	19 f4       	brne	.+6      	; 0x486 <LCD_write_comm+0x62>
     480:	8d ef       	ldi	r24, 0xFD	; 253
     482:	90 e0       	ldi	r25, 0x00	; 0
     484:	05 c0       	rjmp	.+10     	; 0x490 <LCD_write_comm+0x6c>
     486:	87 30       	cpi	r24, 0x07	; 7
     488:	91 05       	cpc	r25, r1
     48a:	99 f4       	brne	.+38     	; 0x4b2 <LCD_write_comm+0x8e>
     48c:	8d e0       	ldi	r24, 0x0D	; 13
     48e:	91 e0       	ldi	r25, 0x01	; 1
     490:	0e 94 0e 04 	call	0x81c	; 0x81c <LCDWriteString>
     494:	61 e0       	ldi	r22, 0x01	; 1
     496:	80 e0       	ldi	r24, 0x00	; 0
     498:	0e 94 65 04 	call	0x8ca	; 0x8ca <LCDGotoXY>
     49c:	86 eb       	ldi	r24, 0xB6	; 182
     49e:	90 e0       	ldi	r25, 0x00	; 0
     4a0:	0e 94 0e 04 	call	0x81c	; 0x81c <LCDWriteString>
     4a4:	61 e0       	ldi	r22, 0x01	; 1
     4a6:	8e e0       	ldi	r24, 0x0E	; 14
     4a8:	0e 94 65 04 	call	0x8ca	; 0x8ca <LCDGotoXY>
     4ac:	86 ea       	ldi	r24, 0xA6	; 166
     4ae:	90 e0       	ldi	r25, 0x00	; 0
     4b0:	0c c0       	rjmp	.+24     	; 0x4ca <LCD_write_comm+0xa6>
     4b2:	08 97       	sbiw	r24, 0x08	; 8
     4b4:	61 f4       	brne	.+24     	; 0x4ce <LCD_write_comm+0xaa>
     4b6:	8b e1       	ldi	r24, 0x1B	; 27
     4b8:	91 e0       	ldi	r25, 0x01	; 1
     4ba:	0e 94 0e 04 	call	0x81c	; 0x81c <LCDWriteString>
     4be:	61 e0       	ldi	r22, 0x01	; 1
     4c0:	80 e0       	ldi	r24, 0x00	; 0
     4c2:	0e 94 65 04 	call	0x8ca	; 0x8ca <LCDGotoXY>
     4c6:	86 eb       	ldi	r24, 0xB6	; 182
     4c8:	90 e0       	ldi	r25, 0x00	; 0
     4ca:	0c 94 0e 04 	jmp	0x81c	; 0x81c <LCDWriteString>
     4ce:	08 95       	ret

000004d0 <get_lcd_instructions>:
     4d0:	3a c0       	rjmp	.+116    	; 0x546 <get_lcd_instructions+0x76>
     4d2:	80 91 40 01 	lds	r24, 0x0140
     4d6:	90 91 41 01 	lds	r25, 0x0141
     4da:	cf 99       	sbic	0x19, 7	; 25
     4dc:	02 c0       	rjmp	.+4      	; 0x4e2 <get_lcd_instructions+0x12>
     4de:	01 97       	sbiw	r24, 0x01	; 1
     4e0:	03 c0       	rjmp	.+6      	; 0x4e8 <get_lcd_instructions+0x18>
     4e2:	ce 99       	sbic	0x19, 6	; 25
     4e4:	1d c0       	rjmp	.+58     	; 0x520 <get_lcd_instructions+0x50>
     4e6:	01 96       	adiw	r24, 0x01	; 1
     4e8:	90 93 41 01 	sts	0x0141, r25
     4ec:	80 93 40 01 	sts	0x0140, r24
     4f0:	0e 94 12 02 	call	0x424	; 0x424 <LCD_write_comm>
     4f4:	2f ef       	ldi	r18, 0xFF	; 255
     4f6:	89 ef       	ldi	r24, 0xF9	; 249
     4f8:	90 e0       	ldi	r25, 0x00	; 0
     4fa:	21 50       	subi	r18, 0x01	; 1
     4fc:	80 40       	sbci	r24, 0x00	; 0
     4fe:	90 40       	sbci	r25, 0x00	; 0
     500:	e1 f7       	brne	.-8      	; 0x4fa <get_lcd_instructions+0x2a>
     502:	00 c0       	rjmp	.+0      	; 0x504 <get_lcd_instructions+0x34>
     504:	00 00       	nop
     506:	60 e0       	ldi	r22, 0x00	; 0
     508:	81 e0       	ldi	r24, 0x01	; 1
     50a:	0e 94 ac 03 	call	0x758	; 0x758 <LCDByte>
     50e:	2f ef       	ldi	r18, 0xFF	; 255
     510:	85 ea       	ldi	r24, 0xA5	; 165
     512:	9e e0       	ldi	r25, 0x0E	; 14
     514:	21 50       	subi	r18, 0x01	; 1
     516:	80 40       	sbci	r24, 0x00	; 0
     518:	90 40       	sbci	r25, 0x00	; 0
     51a:	e1 f7       	brne	.-8      	; 0x514 <get_lcd_instructions+0x44>
     51c:	00 c0       	rjmp	.+0      	; 0x51e <get_lcd_instructions+0x4e>
     51e:	00 00       	nop
     520:	80 91 40 01 	lds	r24, 0x0140
     524:	90 91 41 01 	lds	r25, 0x0141
     528:	0e 94 12 02 	call	0x424	; 0x424 <LCD_write_comm>
     52c:	2f ef       	ldi	r18, 0xFF	; 255
     52e:	89 ef       	ldi	r24, 0xF9	; 249
     530:	90 e0       	ldi	r25, 0x00	; 0
     532:	21 50       	subi	r18, 0x01	; 1
     534:	80 40       	sbci	r24, 0x00	; 0
     536:	90 40       	sbci	r25, 0x00	; 0
     538:	e1 f7       	brne	.-8      	; 0x532 <get_lcd_instructions+0x62>
     53a:	00 c0       	rjmp	.+0      	; 0x53c <get_lcd_instructions+0x6c>
     53c:	00 00       	nop
     53e:	60 e0       	ldi	r22, 0x00	; 0
     540:	81 e0       	ldi	r24, 0x01	; 1
     542:	0e 94 ac 03 	call	0x758	; 0x758 <LCDByte>
     546:	9f 99       	sbic	0x13, 7	; 19
     548:	c4 cf       	rjmp	.-120    	; 0x4d2 <get_lcd_instructions+0x2>
     54a:	08 95       	ret

0000054c <test>:
     54c:	80 e0       	ldi	r24, 0x00	; 0
     54e:	90 e0       	ldi	r25, 0x00	; 0
     550:	0e 94 4e 00 	call	0x9c	; 0x9c <readADC>
     554:	0e 94 8c 07 	call	0xf18	; 0xf18 <__fixsfsi>
     558:	dc 01       	movw	r26, r24
     55a:	cb 01       	movw	r24, r22
     55c:	61 e0       	ldi	r22, 0x01	; 1
     55e:	70 e0       	ldi	r23, 0x00	; 0
     560:	0e 94 1b 04 	call	0x836	; 0x836 <LCDWriteInt>
     564:	81 e0       	ldi	r24, 0x01	; 1
     566:	90 e0       	ldi	r25, 0x00	; 0
     568:	0e 94 4e 00 	call	0x9c	; 0x9c <readADC>
     56c:	0e 94 8c 07 	call	0xf18	; 0xf18 <__fixsfsi>
     570:	dc 01       	movw	r26, r24
     572:	cb 01       	movw	r24, r22
     574:	61 e0       	ldi	r22, 0x01	; 1
     576:	70 e0       	ldi	r23, 0x00	; 0
     578:	0e 94 1b 04 	call	0x836	; 0x836 <LCDWriteInt>
     57c:	82 e0       	ldi	r24, 0x02	; 2
     57e:	90 e0       	ldi	r25, 0x00	; 0
     580:	0e 94 4e 00 	call	0x9c	; 0x9c <readADC>
     584:	0e 94 8c 07 	call	0xf18	; 0xf18 <__fixsfsi>
     588:	dc 01       	movw	r26, r24
     58a:	cb 01       	movw	r24, r22
     58c:	61 e0       	ldi	r22, 0x01	; 1
     58e:	70 e0       	ldi	r23, 0x00	; 0
     590:	0e 94 1b 04 	call	0x836	; 0x836 <LCDWriteInt>
     594:	83 e0       	ldi	r24, 0x03	; 3
     596:	90 e0       	ldi	r25, 0x00	; 0
     598:	0e 94 4e 00 	call	0x9c	; 0x9c <readADC>
     59c:	0e 94 8c 07 	call	0xf18	; 0xf18 <__fixsfsi>
     5a0:	dc 01       	movw	r26, r24
     5a2:	cb 01       	movw	r24, r22
     5a4:	61 e0       	ldi	r22, 0x01	; 1
     5a6:	70 e0       	ldi	r23, 0x00	; 0
     5a8:	0e 94 1b 04 	call	0x836	; 0x836 <LCDWriteInt>
     5ac:	84 e0       	ldi	r24, 0x04	; 4
     5ae:	90 e0       	ldi	r25, 0x00	; 0
     5b0:	0e 94 4e 00 	call	0x9c	; 0x9c <readADC>
     5b4:	0e 94 8c 07 	call	0xf18	; 0xf18 <__fixsfsi>
     5b8:	dc 01       	movw	r26, r24
     5ba:	cb 01       	movw	r24, r22
     5bc:	61 e0       	ldi	r22, 0x01	; 1
     5be:	70 e0       	ldi	r23, 0x00	; 0
     5c0:	0e 94 1b 04 	call	0x836	; 0x836 <LCDWriteInt>
     5c4:	2f ef       	ldi	r18, 0xFF	; 255
     5c6:	89 ef       	ldi	r24, 0xF9	; 249
     5c8:	90 e0       	ldi	r25, 0x00	; 0
     5ca:	21 50       	subi	r18, 0x01	; 1
     5cc:	80 40       	sbci	r24, 0x00	; 0
     5ce:	90 40       	sbci	r25, 0x00	; 0
     5d0:	e1 f7       	brne	.-8      	; 0x5ca <test+0x7e>
     5d2:	00 c0       	rjmp	.+0      	; 0x5d4 <test+0x88>
     5d4:	00 00       	nop
     5d6:	60 e0       	ldi	r22, 0x00	; 0
     5d8:	81 e0       	ldi	r24, 0x01	; 1
     5da:	0e 94 ac 03 	call	0x758	; 0x758 <LCDByte>
     5de:	b6 cf       	rjmp	.-148    	; 0x54c <test>

000005e0 <testline>:
     5e0:	cf 93       	push	r28
     5e2:	df 93       	push	r29
     5e4:	cd b7       	in	r28, 0x3d	; 61
     5e6:	de b7       	in	r29, 0x3e	; 62
     5e8:	64 97       	sbiw	r28, 0x14	; 20
     5ea:	0f b6       	in	r0, 0x3f	; 63
     5ec:	f8 94       	cli
     5ee:	de bf       	out	0x3e, r29	; 62
     5f0:	0f be       	out	0x3f, r0	; 63
     5f2:	cd bf       	out	0x3d, r28	; 61
     5f4:	0e 94 84 00 	call	0x108	; 0x108 <mot_init>
     5f8:	80 e3       	ldi	r24, 0x30	; 48
     5fa:	82 bb       	out	0x12, r24	; 18
     5fc:	8e 01       	movw	r16, r28
     5fe:	0b 5e       	subi	r16, 0xEB	; 235
     600:	1f 4f       	sbci	r17, 0xFF	; 255
     602:	80 e0       	ldi	r24, 0x00	; 0
     604:	90 e0       	ldi	r25, 0x00	; 0
     606:	0e 94 4e 00 	call	0x9c	; 0x9c <readADC>
     60a:	69 83       	std	Y+1, r22	; 0x01
     60c:	7a 83       	std	Y+2, r23	; 0x02
     60e:	8b 83       	std	Y+3, r24	; 0x03
     610:	9c 83       	std	Y+4, r25	; 0x04
     612:	81 e0       	ldi	r24, 0x01	; 1
     614:	90 e0       	ldi	r25, 0x00	; 0
     616:	0e 94 4e 00 	call	0x9c	; 0x9c <readADC>
     61a:	6d 83       	std	Y+5, r22	; 0x05
     61c:	7e 83       	std	Y+6, r23	; 0x06
     61e:	8f 83       	std	Y+7, r24	; 0x07
     620:	98 87       	std	Y+8, r25	; 0x08
     622:	82 e0       	ldi	r24, 0x02	; 2
     624:	90 e0       	ldi	r25, 0x00	; 0
     626:	0e 94 4e 00 	call	0x9c	; 0x9c <readADC>
     62a:	69 87       	std	Y+9, r22	; 0x09
     62c:	7a 87       	std	Y+10, r23	; 0x0a
     62e:	8b 87       	std	Y+11, r24	; 0x0b
     630:	9c 87       	std	Y+12, r25	; 0x0c
     632:	83 e0       	ldi	r24, 0x03	; 3
     634:	90 e0       	ldi	r25, 0x00	; 0
     636:	0e 94 4e 00 	call	0x9c	; 0x9c <readADC>
     63a:	6d 87       	std	Y+13, r22	; 0x0d
     63c:	7e 87       	std	Y+14, r23	; 0x0e
     63e:	8f 87       	std	Y+15, r24	; 0x0f
     640:	98 8b       	std	Y+16, r25	; 0x10
     642:	84 e0       	ldi	r24, 0x04	; 4
     644:	90 e0       	ldi	r25, 0x00	; 0
     646:	0e 94 4e 00 	call	0x9c	; 0x9c <readADC>
     64a:	69 8b       	std	Y+17, r22	; 0x11
     64c:	7a 8b       	std	Y+18, r23	; 0x12
     64e:	8b 8b       	std	Y+19, r24	; 0x13
     650:	9c 8b       	std	Y+20, r25	; 0x14
     652:	aa 24       	eor	r10, r10
     654:	a3 94       	inc	r10
     656:	b1 2c       	mov	r11, r1
     658:	ac 0e       	add	r10, r28
     65a:	bd 1e       	adc	r11, r29
     65c:	45 01       	movw	r8, r10
     65e:	c1 2c       	mov	r12, r1
     660:	d1 2c       	mov	r13, r1
     662:	e1 2c       	mov	r14, r1
     664:	f1 2c       	mov	r15, r1
     666:	f4 01       	movw	r30, r8
     668:	61 91       	ld	r22, Z+
     66a:	71 91       	ld	r23, Z+
     66c:	81 91       	ld	r24, Z+
     66e:	91 91       	ld	r25, Z+
     670:	4f 01       	movw	r8, r30
     672:	f7 01       	movw	r30, r14
     674:	ee 0f       	add	r30, r30
     676:	ff 1f       	adc	r31, r31
     678:	ee 0f       	add	r30, r30
     67a:	ff 1f       	adc	r31, r31
     67c:	21 e0       	ldi	r18, 0x01	; 1
     67e:	30 e0       	ldi	r19, 0x00	; 0
     680:	2c 0f       	add	r18, r28
     682:	3d 1f       	adc	r19, r29
     684:	e2 0f       	add	r30, r18
     686:	f3 1f       	adc	r31, r19
     688:	20 81       	ld	r18, Z
     68a:	31 81       	ldd	r19, Z+1	; 0x01
     68c:	42 81       	ldd	r20, Z+2	; 0x02
     68e:	53 81       	ldd	r21, Z+3	; 0x03
     690:	0e 94 01 07 	call	0xe02	; 0xe02 <__gtsf2>
     694:	18 16       	cp	r1, r24
     696:	0c f4       	brge	.+2      	; 0x69a <testline+0xba>
     698:	76 01       	movw	r14, r12
     69a:	3f ef       	ldi	r19, 0xFF	; 255
     69c:	c3 1a       	sub	r12, r19
     69e:	d3 0a       	sbc	r13, r19
     6a0:	85 e0       	ldi	r24, 0x05	; 5
     6a2:	c8 16       	cp	r12, r24
     6a4:	d1 04       	cpc	r13, r1
     6a6:	f9 f6       	brne	.-66     	; 0x666 <testline+0x86>
     6a8:	f5 01       	movw	r30, r10
     6aa:	61 91       	ld	r22, Z+
     6ac:	71 91       	ld	r23, Z+
     6ae:	81 91       	ld	r24, Z+
     6b0:	91 91       	ld	r25, Z+
     6b2:	5f 01       	movw	r10, r30
     6b4:	0e 94 8c 07 	call	0xf18	; 0xf18 <__fixsfsi>
     6b8:	dc 01       	movw	r26, r24
     6ba:	cb 01       	movw	r24, r22
     6bc:	61 e0       	ldi	r22, 0x01	; 1
     6be:	70 e0       	ldi	r23, 0x00	; 0
     6c0:	0e 94 1b 04 	call	0x836	; 0x836 <LCDWriteInt>
     6c4:	a0 16       	cp	r10, r16
     6c6:	b1 06       	cpc	r11, r17
     6c8:	79 f7       	brne	.-34     	; 0x6a8 <testline+0xc8>
     6ca:	f2 e0       	ldi	r31, 0x02	; 2
     6cc:	ef 16       	cp	r14, r31
     6ce:	f1 04       	cpc	r15, r1
     6d0:	51 f0       	breq	.+20     	; 0x6e6 <testline+0x106>
     6d2:	5c f4       	brge	.+22     	; 0x6ea <testline+0x10a>
     6d4:	e1 14       	cp	r14, r1
     6d6:	f1 04       	cpc	r15, r1
     6d8:	19 f0       	breq	.+6      	; 0x6e0 <testline+0x100>
     6da:	ea 94       	dec	r14
     6dc:	ef 28       	or	r14, r15
     6de:	29 f4       	brne	.+10     	; 0x6ea <testline+0x10a>
     6e0:	aa 9a       	sbi	0x15, 2	; 21
     6e2:	96 98       	cbi	0x12, 6	; 18
     6e4:	04 c0       	rjmp	.+8      	; 0x6ee <testline+0x10e>
     6e6:	aa 9a       	sbi	0x15, 2	; 21
     6e8:	01 c0       	rjmp	.+2      	; 0x6ec <testline+0x10c>
     6ea:	aa 98       	cbi	0x15, 2	; 21
     6ec:	96 9a       	sbi	0x12, 6	; 18
     6ee:	60 e0       	ldi	r22, 0x00	; 0
     6f0:	81 e0       	ldi	r24, 0x01	; 1
     6f2:	0e 94 ac 03 	call	0x758	; 0x758 <LCDByte>
     6f6:	85 cf       	rjmp	.-246    	; 0x602 <testline+0x22>

000006f8 <LCDBusyLoop>:
     6f8:	87 b3       	in	r24, 0x17	; 23
     6fa:	80 7f       	andi	r24, 0xF0	; 240
     6fc:	87 bb       	out	0x17, r24	; 23
     6fe:	ad 9a       	sbi	0x15, 5	; 21
     700:	ae 98       	cbi	0x15, 6	; 21
     702:	82 e0       	ldi	r24, 0x02	; 2
     704:	8a 95       	dec	r24
     706:	f1 f7       	brne	.-4      	; 0x704 <LCDBusyLoop+0xc>
     708:	00 c0       	rjmp	.+0      	; 0x70a <LCDBusyLoop+0x12>
     70a:	a9 9a       	sbi	0x15, 1	; 21
     70c:	92 e0       	ldi	r25, 0x02	; 2
     70e:	9a 95       	dec	r25
     710:	f1 f7       	brne	.-4      	; 0x70e <LCDBusyLoop+0x16>
     712:	00 c0       	rjmp	.+0      	; 0x714 <LCDBusyLoop+0x1c>
     714:	86 b3       	in	r24, 0x16	; 22
     716:	82 95       	swap	r24
     718:	80 7f       	andi	r24, 0xF0	; 240
     71a:	92 e0       	ldi	r25, 0x02	; 2
     71c:	9a 95       	dec	r25
     71e:	f1 f7       	brne	.-4      	; 0x71c <LCDBusyLoop+0x24>
     720:	00 c0       	rjmp	.+0      	; 0x722 <LCDBusyLoop+0x2a>
     722:	a9 98       	cbi	0x15, 1	; 21
     724:	95 e0       	ldi	r25, 0x05	; 5
     726:	9a 95       	dec	r25
     728:	f1 f7       	brne	.-4      	; 0x726 <LCDBusyLoop+0x2e>
     72a:	00 00       	nop
     72c:	a9 9a       	sbi	0x15, 1	; 21
     72e:	92 e0       	ldi	r25, 0x02	; 2
     730:	9a 95       	dec	r25
     732:	f1 f7       	brne	.-4      	; 0x730 <LCDBusyLoop+0x38>
     734:	00 c0       	rjmp	.+0      	; 0x736 <LCDBusyLoop+0x3e>
     736:	96 b3       	in	r25, 0x16	; 22
     738:	92 e0       	ldi	r25, 0x02	; 2
     73a:	9a 95       	dec	r25
     73c:	f1 f7       	brne	.-4      	; 0x73a <LCDBusyLoop+0x42>
     73e:	00 c0       	rjmp	.+0      	; 0x740 <LCDBusyLoop+0x48>
     740:	a9 98       	cbi	0x15, 1	; 21
     742:	95 e0       	ldi	r25, 0x05	; 5
     744:	9a 95       	dec	r25
     746:	f1 f7       	brne	.-4      	; 0x744 <LCDBusyLoop+0x4c>
     748:	00 00       	nop
     74a:	87 fd       	sbrc	r24, 7
     74c:	de cf       	rjmp	.-68     	; 0x70a <LCDBusyLoop+0x12>
     74e:	ad 98       	cbi	0x15, 5	; 21
     750:	87 b3       	in	r24, 0x17	; 23
     752:	8f 60       	ori	r24, 0x0F	; 15
     754:	87 bb       	out	0x17, r24	; 23
     756:	08 95       	ret

00000758 <LCDByte>:
     758:	28 2f       	mov	r18, r24
     75a:	22 95       	swap	r18
     75c:	2f 70       	andi	r18, 0x0F	; 15
     75e:	8f 70       	andi	r24, 0x0F	; 15
     760:	61 11       	cpse	r22, r1
     762:	02 c0       	rjmp	.+4      	; 0x768 <LCDByte+0x10>
     764:	ae 98       	cbi	0x15, 6	; 21
     766:	01 c0       	rjmp	.+2      	; 0x76a <LCDByte+0x12>
     768:	ae 9a       	sbi	0x15, 6	; 21
     76a:	92 e0       	ldi	r25, 0x02	; 2
     76c:	9a 95       	dec	r25
     76e:	f1 f7       	brne	.-4      	; 0x76c <LCDByte+0x14>
     770:	00 c0       	rjmp	.+0      	; 0x772 <LCDByte+0x1a>
     772:	a9 9a       	sbi	0x15, 1	; 21
     774:	98 b3       	in	r25, 0x18	; 24
     776:	90 7f       	andi	r25, 0xF0	; 240
     778:	92 2b       	or	r25, r18
     77a:	98 bb       	out	0x18, r25	; 24
     77c:	95 e0       	ldi	r25, 0x05	; 5
     77e:	9a 95       	dec	r25
     780:	f1 f7       	brne	.-4      	; 0x77e <LCDByte+0x26>
     782:	00 00       	nop
     784:	a9 98       	cbi	0x15, 1	; 21
     786:	95 e0       	ldi	r25, 0x05	; 5
     788:	9a 95       	dec	r25
     78a:	f1 f7       	brne	.-4      	; 0x788 <LCDByte+0x30>
     78c:	00 00       	nop
     78e:	a9 9a       	sbi	0x15, 1	; 21
     790:	98 b3       	in	r25, 0x18	; 24
     792:	90 7f       	andi	r25, 0xF0	; 240
     794:	98 2b       	or	r25, r24
     796:	98 bb       	out	0x18, r25	; 24
     798:	85 e0       	ldi	r24, 0x05	; 5
     79a:	8a 95       	dec	r24
     79c:	f1 f7       	brne	.-4      	; 0x79a <LCDByte+0x42>
     79e:	00 00       	nop
     7a0:	a9 98       	cbi	0x15, 1	; 21
     7a2:	95 e0       	ldi	r25, 0x05	; 5
     7a4:	9a 95       	dec	r25
     7a6:	f1 f7       	brne	.-4      	; 0x7a4 <LCDByte+0x4c>
     7a8:	00 00       	nop
     7aa:	0c 94 7c 03 	jmp	0x6f8	; 0x6f8 <LCDBusyLoop>

000007ae <InitLCD>:
     7ae:	cf 93       	push	r28
     7b0:	df 93       	push	r29
     7b2:	1f 92       	push	r1
     7b4:	cd b7       	in	r28, 0x3d	; 61
     7b6:	de b7       	in	r29, 0x3e	; 62
     7b8:	2f ef       	ldi	r18, 0xFF	; 255
     7ba:	36 e7       	ldi	r19, 0x76	; 118
     7bc:	91 e0       	ldi	r25, 0x01	; 1
     7be:	21 50       	subi	r18, 0x01	; 1
     7c0:	30 40       	sbci	r19, 0x00	; 0
     7c2:	90 40       	sbci	r25, 0x00	; 0
     7c4:	e1 f7       	brne	.-8      	; 0x7be <InitLCD+0x10>
     7c6:	00 c0       	rjmp	.+0      	; 0x7c8 <InitLCD+0x1a>
     7c8:	00 00       	nop
     7ca:	97 b3       	in	r25, 0x17	; 23
     7cc:	9f 60       	ori	r25, 0x0F	; 15
     7ce:	97 bb       	out	0x17, r25	; 23
     7d0:	a1 9a       	sbi	0x14, 1	; 20
     7d2:	a6 9a       	sbi	0x14, 6	; 20
     7d4:	a5 9a       	sbi	0x14, 5	; 20
     7d6:	98 b3       	in	r25, 0x18	; 24
     7d8:	90 7f       	andi	r25, 0xF0	; 240
     7da:	98 bb       	out	0x18, r25	; 24
     7dc:	a9 98       	cbi	0x15, 1	; 21
     7de:	ad 98       	cbi	0x15, 5	; 21
     7e0:	ae 98       	cbi	0x15, 6	; 21
     7e2:	00 c0       	rjmp	.+0      	; 0x7e4 <InitLCD+0x36>
     7e4:	00 c0       	rjmp	.+0      	; 0x7e6 <InitLCD+0x38>
     7e6:	00 00       	nop
     7e8:	a9 9a       	sbi	0x15, 1	; 21
     7ea:	c1 9a       	sbi	0x18, 1	; 24
     7ec:	e5 e0       	ldi	r30, 0x05	; 5
     7ee:	ea 95       	dec	r30
     7f0:	f1 f7       	brne	.-4      	; 0x7ee <InitLCD+0x40>
     7f2:	00 00       	nop
     7f4:	a9 98       	cbi	0x15, 1	; 21
     7f6:	f5 e0       	ldi	r31, 0x05	; 5
     7f8:	fa 95       	dec	r31
     7fa:	f1 f7       	brne	.-4      	; 0x7f8 <InitLCD+0x4a>
     7fc:	00 00       	nop
     7fe:	89 83       	std	Y+1, r24	; 0x01
     800:	0e 94 7c 03 	call	0x6f8	; 0x6f8 <LCDBusyLoop>
     804:	60 e0       	ldi	r22, 0x00	; 0
     806:	89 81       	ldd	r24, Y+1	; 0x01
     808:	8c 60       	ori	r24, 0x0C	; 12
     80a:	0e 94 ac 03 	call	0x758	; 0x758 <LCDByte>
     80e:	60 e0       	ldi	r22, 0x00	; 0
     810:	88 e2       	ldi	r24, 0x28	; 40
     812:	0f 90       	pop	r0
     814:	df 91       	pop	r29
     816:	cf 91       	pop	r28
     818:	0c 94 ac 03 	jmp	0x758	; 0x758 <LCDByte>

0000081c <LCDWriteString>:
     81c:	cf 93       	push	r28
     81e:	df 93       	push	r29
     820:	ec 01       	movw	r28, r24
     822:	03 c0       	rjmp	.+6      	; 0x82a <LCDWriteString+0xe>
     824:	61 e0       	ldi	r22, 0x01	; 1
     826:	0e 94 ac 03 	call	0x758	; 0x758 <LCDByte>
     82a:	89 91       	ld	r24, Y+
     82c:	81 11       	cpse	r24, r1
     82e:	fa cf       	rjmp	.-12     	; 0x824 <LCDWriteString+0x8>
     830:	df 91       	pop	r29
     832:	cf 91       	pop	r28
     834:	08 95       	ret

00000836 <LCDWriteInt>:
     836:	0f 93       	push	r16
     838:	1f 93       	push	r17
     83a:	cf 93       	push	r28
     83c:	df 93       	push	r29
     83e:	00 d0       	rcall	.+0      	; 0x840 <LCDWriteInt+0xa>
     840:	00 d0       	rcall	.+0      	; 0x842 <LCDWriteInt+0xc>
     842:	1f 92       	push	r1
     844:	cd b7       	in	r28, 0x3d	; 61
     846:	de b7       	in	r29, 0x3e	; 62
     848:	9b 01       	movw	r18, r22
     84a:	fe 01       	movw	r30, r28
     84c:	31 96       	adiw	r30, 0x01	; 1
     84e:	45 e0       	ldi	r20, 0x05	; 5
     850:	df 01       	movw	r26, r30
     852:	1d 92       	st	X+, r1
     854:	4a 95       	dec	r20
     856:	e9 f7       	brne	.-6      	; 0x852 <LCDWriteInt+0x1c>
     858:	fe 01       	movw	r30, r28
     85a:	36 96       	adiw	r30, 0x06	; 6
     85c:	0a e0       	ldi	r16, 0x0A	; 10
     85e:	10 e0       	ldi	r17, 0x00	; 0
     860:	05 c0       	rjmp	.+10     	; 0x86c <__stack+0xd>
     862:	b8 01       	movw	r22, r16
     864:	0e 94 6a 0a 	call	0x14d4	; 0x14d4 <__divmodhi4>
     868:	82 93       	st	-Z, r24
     86a:	cb 01       	movw	r24, r22
     86c:	00 97       	sbiw	r24, 0x00	; 0
     86e:	c9 f7       	brne	.-14     	; 0x862 <__stack+0x3>
     870:	2f 3f       	cpi	r18, 0xFF	; 255
     872:	bf ef       	ldi	r27, 0xFF	; 255
     874:	3b 07       	cpc	r19, r27
     876:	51 f4       	brne	.+20     	; 0x88c <__stack+0x2d>
     878:	fe 01       	movw	r30, r28
     87a:	31 96       	adiw	r30, 0x01	; 1
     87c:	cf 01       	movw	r24, r30
     87e:	8f 01       	movw	r16, r30
     880:	08 1b       	sub	r16, r24
     882:	19 0b       	sbc	r17, r25
     884:	21 91       	ld	r18, Z+
     886:	22 23       	and	r18, r18
     888:	d1 f3       	breq	.-12     	; 0x87e <__stack+0x1f>
     88a:	12 c0       	rjmp	.+36     	; 0x8b0 <__stack+0x51>
     88c:	05 e0       	ldi	r16, 0x05	; 5
     88e:	10 e0       	ldi	r17, 0x00	; 0
     890:	02 1b       	sub	r16, r18
     892:	13 0b       	sbc	r17, r19
     894:	0d c0       	rjmp	.+26     	; 0x8b0 <__stack+0x51>
     896:	e1 e0       	ldi	r30, 0x01	; 1
     898:	f0 e0       	ldi	r31, 0x00	; 0
     89a:	ec 0f       	add	r30, r28
     89c:	fd 1f       	adc	r31, r29
     89e:	e0 0f       	add	r30, r16
     8a0:	f1 1f       	adc	r31, r17
     8a2:	80 81       	ld	r24, Z
     8a4:	61 e0       	ldi	r22, 0x01	; 1
     8a6:	80 5d       	subi	r24, 0xD0	; 208
     8a8:	0e 94 ac 03 	call	0x758	; 0x758 <LCDByte>
     8ac:	0f 5f       	subi	r16, 0xFF	; 255
     8ae:	1f 4f       	sbci	r17, 0xFF	; 255
     8b0:	05 30       	cpi	r16, 0x05	; 5
     8b2:	11 05       	cpc	r17, r1
     8b4:	84 f3       	brlt	.-32     	; 0x896 <__stack+0x37>
     8b6:	0f 90       	pop	r0
     8b8:	0f 90       	pop	r0
     8ba:	0f 90       	pop	r0
     8bc:	0f 90       	pop	r0
     8be:	0f 90       	pop	r0
     8c0:	df 91       	pop	r29
     8c2:	cf 91       	pop	r28
     8c4:	1f 91       	pop	r17
     8c6:	0f 91       	pop	r16
     8c8:	08 95       	ret

000008ca <LCDGotoXY>:
     8ca:	88 32       	cpi	r24, 0x28	; 40
     8cc:	30 f4       	brcc	.+12     	; 0x8da <LCDGotoXY+0x10>
     8ce:	61 11       	cpse	r22, r1
     8d0:	80 64       	ori	r24, 0x40	; 64
     8d2:	60 e0       	ldi	r22, 0x00	; 0
     8d4:	80 68       	ori	r24, 0x80	; 128
     8d6:	0c 94 ac 03 	jmp	0x758	; 0x758 <LCDByte>
     8da:	08 95       	ret

000008dc <_fpadd_parts>:
     8dc:	a0 e0       	ldi	r26, 0x00	; 0
     8de:	b0 e0       	ldi	r27, 0x00	; 0
     8e0:	e4 e7       	ldi	r30, 0x74	; 116
     8e2:	f4 e0       	ldi	r31, 0x04	; 4
     8e4:	0c 94 96 0a 	jmp	0x152c	; 0x152c <__prologue_saves__+0x8>
     8e8:	3c 01       	movw	r6, r24
     8ea:	cb 01       	movw	r24, r22
     8ec:	ea 01       	movw	r28, r20
     8ee:	d3 01       	movw	r26, r6
     8f0:	2c 91       	ld	r18, X
     8f2:	22 30       	cpi	r18, 0x02	; 2
     8f4:	08 f4       	brcc	.+2      	; 0x8f8 <_fpadd_parts+0x1c>
     8f6:	3e c1       	rjmp	.+636    	; 0xb74 <_fpadd_parts+0x298>
     8f8:	fb 01       	movw	r30, r22
     8fa:	30 81       	ld	r19, Z
     8fc:	32 30       	cpi	r19, 0x02	; 2
     8fe:	08 f4       	brcc	.+2      	; 0x902 <_fpadd_parts+0x26>
     900:	36 c1       	rjmp	.+620    	; 0xb6e <_fpadd_parts+0x292>
     902:	24 30       	cpi	r18, 0x04	; 4
     904:	71 f4       	brne	.+28     	; 0x922 <_fpadd_parts+0x46>
     906:	34 30       	cpi	r19, 0x04	; 4
     908:	09 f0       	breq	.+2      	; 0x90c <_fpadd_parts+0x30>
     90a:	34 c1       	rjmp	.+616    	; 0xb74 <_fpadd_parts+0x298>
     90c:	11 96       	adiw	r26, 0x01	; 1
     90e:	2c 91       	ld	r18, X
     910:	81 81       	ldd	r24, Z+1	; 0x01
     912:	28 17       	cp	r18, r24
     914:	09 f4       	brne	.+2      	; 0x918 <_fpadd_parts+0x3c>
     916:	2e c1       	rjmp	.+604    	; 0xb74 <_fpadd_parts+0x298>
     918:	b0 e6       	ldi	r27, 0x60	; 96
     91a:	6b 2e       	mov	r6, r27
     91c:	b0 e0       	ldi	r27, 0x00	; 0
     91e:	7b 2e       	mov	r7, r27
     920:	29 c1       	rjmp	.+594    	; 0xb74 <_fpadd_parts+0x298>
     922:	34 30       	cpi	r19, 0x04	; 4
     924:	09 f4       	brne	.+2      	; 0x928 <_fpadd_parts+0x4c>
     926:	23 c1       	rjmp	.+582    	; 0xb6e <_fpadd_parts+0x292>
     928:	32 30       	cpi	r19, 0x02	; 2
     92a:	91 f4       	brne	.+36     	; 0x950 <_fpadd_parts+0x74>
     92c:	22 30       	cpi	r18, 0x02	; 2
     92e:	09 f0       	breq	.+2      	; 0x932 <_fpadd_parts+0x56>
     930:	21 c1       	rjmp	.+578    	; 0xb74 <_fpadd_parts+0x298>
     932:	28 e0       	ldi	r18, 0x08	; 8
     934:	f3 01       	movw	r30, r6
     936:	da 01       	movw	r26, r20
     938:	01 90       	ld	r0, Z+
     93a:	0d 92       	st	X+, r0
     93c:	2a 95       	dec	r18
     93e:	e1 f7       	brne	.-8      	; 0x938 <_fpadd_parts+0x5c>
     940:	db 01       	movw	r26, r22
     942:	11 96       	adiw	r26, 0x01	; 1
     944:	8c 91       	ld	r24, X
     946:	f3 01       	movw	r30, r6
     948:	91 81       	ldd	r25, Z+1	; 0x01
     94a:	89 23       	and	r24, r25
     94c:	89 83       	std	Y+1, r24	; 0x01
     94e:	11 c1       	rjmp	.+546    	; 0xb72 <_fpadd_parts+0x296>
     950:	22 30       	cpi	r18, 0x02	; 2
     952:	09 f4       	brne	.+2      	; 0x956 <_fpadd_parts+0x7a>
     954:	0c c1       	rjmp	.+536    	; 0xb6e <_fpadd_parts+0x292>
     956:	d3 01       	movw	r26, r6
     958:	12 96       	adiw	r26, 0x02	; 2
     95a:	ed 91       	ld	r30, X+
     95c:	fc 91       	ld	r31, X
     95e:	13 97       	sbiw	r26, 0x03	; 3
     960:	db 01       	movw	r26, r22
     962:	12 96       	adiw	r26, 0x02	; 2
     964:	6d 91       	ld	r22, X+
     966:	7c 91       	ld	r23, X
     968:	13 97       	sbiw	r26, 0x03	; 3
     96a:	d3 01       	movw	r26, r6
     96c:	14 96       	adiw	r26, 0x04	; 4
     96e:	0d 91       	ld	r16, X+
     970:	1d 91       	ld	r17, X+
     972:	2d 91       	ld	r18, X+
     974:	3c 91       	ld	r19, X
     976:	17 97       	sbiw	r26, 0x07	; 7
     978:	dc 01       	movw	r26, r24
     97a:	14 96       	adiw	r26, 0x04	; 4
     97c:	cd 90       	ld	r12, X+
     97e:	dd 90       	ld	r13, X+
     980:	ed 90       	ld	r14, X+
     982:	fc 90       	ld	r15, X
     984:	17 97       	sbiw	r26, 0x07	; 7
     986:	af 01       	movw	r20, r30
     988:	46 1b       	sub	r20, r22
     98a:	57 0b       	sbc	r21, r23
     98c:	da 01       	movw	r26, r20
     98e:	57 ff       	sbrs	r21, 7
     990:	04 c0       	rjmp	.+8      	; 0x99a <_fpadd_parts+0xbe>
     992:	aa 27       	eor	r26, r26
     994:	bb 27       	eor	r27, r27
     996:	a4 1b       	sub	r26, r20
     998:	b5 0b       	sbc	r27, r21
     99a:	a0 32       	cpi	r26, 0x20	; 32
     99c:	b1 05       	cpc	r27, r1
     99e:	0c f0       	brlt	.+2      	; 0x9a2 <_fpadd_parts+0xc6>
     9a0:	65 c0       	rjmp	.+202    	; 0xa6c <_fpadd_parts+0x190>
     9a2:	14 16       	cp	r1, r20
     9a4:	15 06       	cpc	r1, r21
     9a6:	7c f5       	brge	.+94     	; 0xa06 <_fpadd_parts+0x12a>
     9a8:	b7 01       	movw	r22, r14
     9aa:	a6 01       	movw	r20, r12
     9ac:	0a 2e       	mov	r0, r26
     9ae:	04 c0       	rjmp	.+8      	; 0x9b8 <_fpadd_parts+0xdc>
     9b0:	76 95       	lsr	r23
     9b2:	67 95       	ror	r22
     9b4:	57 95       	ror	r21
     9b6:	47 95       	ror	r20
     9b8:	0a 94       	dec	r0
     9ba:	d2 f7       	brpl	.-12     	; 0x9b0 <_fpadd_parts+0xd4>
     9bc:	81 2c       	mov	r8, r1
     9be:	91 2c       	mov	r9, r1
     9c0:	54 01       	movw	r10, r8
     9c2:	83 94       	inc	r8
     9c4:	04 c0       	rjmp	.+8      	; 0x9ce <_fpadd_parts+0xf2>
     9c6:	88 0c       	add	r8, r8
     9c8:	99 1c       	adc	r9, r9
     9ca:	aa 1c       	adc	r10, r10
     9cc:	bb 1c       	adc	r11, r11
     9ce:	aa 95       	dec	r26
     9d0:	d2 f7       	brpl	.-12     	; 0x9c6 <_fpadd_parts+0xea>
     9d2:	b1 e0       	ldi	r27, 0x01	; 1
     9d4:	8b 1a       	sub	r8, r27
     9d6:	91 08       	sbc	r9, r1
     9d8:	a1 08       	sbc	r10, r1
     9da:	b1 08       	sbc	r11, r1
     9dc:	8c 20       	and	r8, r12
     9de:	9d 20       	and	r9, r13
     9e0:	ae 20       	and	r10, r14
     9e2:	bf 20       	and	r11, r15
     9e4:	c1 2c       	mov	r12, r1
     9e6:	d1 2c       	mov	r13, r1
     9e8:	76 01       	movw	r14, r12
     9ea:	c3 94       	inc	r12
     9ec:	81 14       	cp	r8, r1
     9ee:	91 04       	cpc	r9, r1
     9f0:	a1 04       	cpc	r10, r1
     9f2:	b1 04       	cpc	r11, r1
     9f4:	19 f4       	brne	.+6      	; 0x9fc <_fpadd_parts+0x120>
     9f6:	c1 2c       	mov	r12, r1
     9f8:	d1 2c       	mov	r13, r1
     9fa:	76 01       	movw	r14, r12
     9fc:	c4 2a       	or	r12, r20
     9fe:	d5 2a       	or	r13, r21
     a00:	e6 2a       	or	r14, r22
     a02:	f7 2a       	or	r15, r23
     a04:	3e c0       	rjmp	.+124    	; 0xa82 <_fpadd_parts+0x1a6>
     a06:	45 2b       	or	r20, r21
     a08:	e1 f1       	breq	.+120    	; 0xa82 <_fpadd_parts+0x1a6>
     a0a:	ea 0f       	add	r30, r26
     a0c:	fb 1f       	adc	r31, r27
     a0e:	b9 01       	movw	r22, r18
     a10:	a8 01       	movw	r20, r16
     a12:	0a 2e       	mov	r0, r26
     a14:	04 c0       	rjmp	.+8      	; 0xa1e <_fpadd_parts+0x142>
     a16:	76 95       	lsr	r23
     a18:	67 95       	ror	r22
     a1a:	57 95       	ror	r21
     a1c:	47 95       	ror	r20
     a1e:	0a 94       	dec	r0
     a20:	d2 f7       	brpl	.-12     	; 0xa16 <_fpadd_parts+0x13a>
     a22:	81 2c       	mov	r8, r1
     a24:	91 2c       	mov	r9, r1
     a26:	54 01       	movw	r10, r8
     a28:	83 94       	inc	r8
     a2a:	04 c0       	rjmp	.+8      	; 0xa34 <_fpadd_parts+0x158>
     a2c:	88 0c       	add	r8, r8
     a2e:	99 1c       	adc	r9, r9
     a30:	aa 1c       	adc	r10, r10
     a32:	bb 1c       	adc	r11, r11
     a34:	aa 95       	dec	r26
     a36:	d2 f7       	brpl	.-12     	; 0xa2c <_fpadd_parts+0x150>
     a38:	a1 e0       	ldi	r26, 0x01	; 1
     a3a:	8a 1a       	sub	r8, r26
     a3c:	91 08       	sbc	r9, r1
     a3e:	a1 08       	sbc	r10, r1
     a40:	b1 08       	sbc	r11, r1
     a42:	80 22       	and	r8, r16
     a44:	91 22       	and	r9, r17
     a46:	a2 22       	and	r10, r18
     a48:	b3 22       	and	r11, r19
     a4a:	01 e0       	ldi	r16, 0x01	; 1
     a4c:	10 e0       	ldi	r17, 0x00	; 0
     a4e:	20 e0       	ldi	r18, 0x00	; 0
     a50:	30 e0       	ldi	r19, 0x00	; 0
     a52:	81 14       	cp	r8, r1
     a54:	91 04       	cpc	r9, r1
     a56:	a1 04       	cpc	r10, r1
     a58:	b1 04       	cpc	r11, r1
     a5a:	19 f4       	brne	.+6      	; 0xa62 <_fpadd_parts+0x186>
     a5c:	00 e0       	ldi	r16, 0x00	; 0
     a5e:	10 e0       	ldi	r17, 0x00	; 0
     a60:	98 01       	movw	r18, r16
     a62:	04 2b       	or	r16, r20
     a64:	15 2b       	or	r17, r21
     a66:	26 2b       	or	r18, r22
     a68:	37 2b       	or	r19, r23
     a6a:	0b c0       	rjmp	.+22     	; 0xa82 <_fpadd_parts+0x1a6>
     a6c:	6e 17       	cp	r22, r30
     a6e:	7f 07       	cpc	r23, r31
     a70:	24 f4       	brge	.+8      	; 0xa7a <_fpadd_parts+0x19e>
     a72:	c1 2c       	mov	r12, r1
     a74:	d1 2c       	mov	r13, r1
     a76:	76 01       	movw	r14, r12
     a78:	04 c0       	rjmp	.+8      	; 0xa82 <_fpadd_parts+0x1a6>
     a7a:	fb 01       	movw	r30, r22
     a7c:	00 e0       	ldi	r16, 0x00	; 0
     a7e:	10 e0       	ldi	r17, 0x00	; 0
     a80:	98 01       	movw	r18, r16
     a82:	d3 01       	movw	r26, r6
     a84:	11 96       	adiw	r26, 0x01	; 1
     a86:	4c 91       	ld	r20, X
     a88:	dc 01       	movw	r26, r24
     a8a:	11 96       	adiw	r26, 0x01	; 1
     a8c:	8c 91       	ld	r24, X
     a8e:	48 17       	cp	r20, r24
     a90:	09 f4       	brne	.+2      	; 0xa94 <_fpadd_parts+0x1b8>
     a92:	42 c0       	rjmp	.+132    	; 0xb18 <_fpadd_parts+0x23c>
     a94:	44 23       	and	r20, r20
     a96:	49 f0       	breq	.+18     	; 0xaaa <_fpadd_parts+0x1ce>
     a98:	d7 01       	movw	r26, r14
     a9a:	c6 01       	movw	r24, r12
     a9c:	80 1b       	sub	r24, r16
     a9e:	91 0b       	sbc	r25, r17
     aa0:	a2 0b       	sbc	r26, r18
     aa2:	b3 0b       	sbc	r27, r19
     aa4:	8c 01       	movw	r16, r24
     aa6:	9d 01       	movw	r18, r26
     aa8:	04 c0       	rjmp	.+8      	; 0xab2 <_fpadd_parts+0x1d6>
     aaa:	0c 19       	sub	r16, r12
     aac:	1d 09       	sbc	r17, r13
     aae:	2e 09       	sbc	r18, r14
     ab0:	3f 09       	sbc	r19, r15
     ab2:	37 fd       	sbrc	r19, 7
     ab4:	04 c0       	rjmp	.+8      	; 0xabe <_fpadd_parts+0x1e2>
     ab6:	19 82       	std	Y+1, r1	; 0x01
     ab8:	fb 83       	std	Y+3, r31	; 0x03
     aba:	ea 83       	std	Y+2, r30	; 0x02
     abc:	0b c0       	rjmp	.+22     	; 0xad4 <_fpadd_parts+0x1f8>
     abe:	81 e0       	ldi	r24, 0x01	; 1
     ac0:	89 83       	std	Y+1, r24	; 0x01
     ac2:	fb 83       	std	Y+3, r31	; 0x03
     ac4:	ea 83       	std	Y+2, r30	; 0x02
     ac6:	30 95       	com	r19
     ac8:	20 95       	com	r18
     aca:	10 95       	com	r17
     acc:	01 95       	neg	r16
     ace:	1f 4f       	sbci	r17, 0xFF	; 255
     ad0:	2f 4f       	sbci	r18, 0xFF	; 255
     ad2:	3f 4f       	sbci	r19, 0xFF	; 255
     ad4:	0c 83       	std	Y+4, r16	; 0x04
     ad6:	1d 83       	std	Y+5, r17	; 0x05
     ad8:	2e 83       	std	Y+6, r18	; 0x06
     ada:	3f 83       	std	Y+7, r19	; 0x07
     adc:	0d c0       	rjmp	.+26     	; 0xaf8 <_fpadd_parts+0x21c>
     ade:	88 0f       	add	r24, r24
     ae0:	99 1f       	adc	r25, r25
     ae2:	aa 1f       	adc	r26, r26
     ae4:	bb 1f       	adc	r27, r27
     ae6:	8c 83       	std	Y+4, r24	; 0x04
     ae8:	9d 83       	std	Y+5, r25	; 0x05
     aea:	ae 83       	std	Y+6, r26	; 0x06
     aec:	bf 83       	std	Y+7, r27	; 0x07
     aee:	8a 81       	ldd	r24, Y+2	; 0x02
     af0:	9b 81       	ldd	r25, Y+3	; 0x03
     af2:	01 97       	sbiw	r24, 0x01	; 1
     af4:	9b 83       	std	Y+3, r25	; 0x03
     af6:	8a 83       	std	Y+2, r24	; 0x02
     af8:	8c 81       	ldd	r24, Y+4	; 0x04
     afa:	9d 81       	ldd	r25, Y+5	; 0x05
     afc:	ae 81       	ldd	r26, Y+6	; 0x06
     afe:	bf 81       	ldd	r27, Y+7	; 0x07
     b00:	8c 01       	movw	r16, r24
     b02:	9d 01       	movw	r18, r26
     b04:	01 50       	subi	r16, 0x01	; 1
     b06:	11 09       	sbc	r17, r1
     b08:	21 09       	sbc	r18, r1
     b0a:	31 09       	sbc	r19, r1
     b0c:	0f 3f       	cpi	r16, 0xFF	; 255
     b0e:	1f 4f       	sbci	r17, 0xFF	; 255
     b10:	2f 4f       	sbci	r18, 0xFF	; 255
     b12:	3f 43       	sbci	r19, 0x3F	; 63
     b14:	20 f3       	brcs	.-56     	; 0xade <_fpadd_parts+0x202>
     b16:	0b c0       	rjmp	.+22     	; 0xb2e <_fpadd_parts+0x252>
     b18:	49 83       	std	Y+1, r20	; 0x01
     b1a:	fb 83       	std	Y+3, r31	; 0x03
     b1c:	ea 83       	std	Y+2, r30	; 0x02
     b1e:	0c 0d       	add	r16, r12
     b20:	1d 1d       	adc	r17, r13
     b22:	2e 1d       	adc	r18, r14
     b24:	3f 1d       	adc	r19, r15
     b26:	0c 83       	std	Y+4, r16	; 0x04
     b28:	1d 83       	std	Y+5, r17	; 0x05
     b2a:	2e 83       	std	Y+6, r18	; 0x06
     b2c:	3f 83       	std	Y+7, r19	; 0x07
     b2e:	83 e0       	ldi	r24, 0x03	; 3
     b30:	88 83       	st	Y, r24
     b32:	0c 81       	ldd	r16, Y+4	; 0x04
     b34:	1d 81       	ldd	r17, Y+5	; 0x05
     b36:	2e 81       	ldd	r18, Y+6	; 0x06
     b38:	3f 81       	ldd	r19, Y+7	; 0x07
     b3a:	37 ff       	sbrs	r19, 7
     b3c:	1a c0       	rjmp	.+52     	; 0xb72 <_fpadd_parts+0x296>
     b3e:	d9 01       	movw	r26, r18
     b40:	c8 01       	movw	r24, r16
     b42:	81 70       	andi	r24, 0x01	; 1
     b44:	99 27       	eor	r25, r25
     b46:	aa 27       	eor	r26, r26
     b48:	bb 27       	eor	r27, r27
     b4a:	36 95       	lsr	r19
     b4c:	27 95       	ror	r18
     b4e:	17 95       	ror	r17
     b50:	07 95       	ror	r16
     b52:	80 2b       	or	r24, r16
     b54:	91 2b       	or	r25, r17
     b56:	a2 2b       	or	r26, r18
     b58:	b3 2b       	or	r27, r19
     b5a:	8c 83       	std	Y+4, r24	; 0x04
     b5c:	9d 83       	std	Y+5, r25	; 0x05
     b5e:	ae 83       	std	Y+6, r26	; 0x06
     b60:	bf 83       	std	Y+7, r27	; 0x07
     b62:	8a 81       	ldd	r24, Y+2	; 0x02
     b64:	9b 81       	ldd	r25, Y+3	; 0x03
     b66:	01 96       	adiw	r24, 0x01	; 1
     b68:	9b 83       	std	Y+3, r25	; 0x03
     b6a:	8a 83       	std	Y+2, r24	; 0x02
     b6c:	02 c0       	rjmp	.+4      	; 0xb72 <_fpadd_parts+0x296>
     b6e:	3c 01       	movw	r6, r24
     b70:	01 c0       	rjmp	.+2      	; 0xb74 <_fpadd_parts+0x298>
     b72:	3e 01       	movw	r6, r28
     b74:	c3 01       	movw	r24, r6
     b76:	cd b7       	in	r28, 0x3d	; 61
     b78:	de b7       	in	r29, 0x3e	; 62
     b7a:	ee e0       	ldi	r30, 0x0E	; 14
     b7c:	0c 94 b2 0a 	jmp	0x1564	; 0x1564 <__epilogue_restores__+0x8>

00000b80 <__addsf3>:
     b80:	a0 e2       	ldi	r26, 0x20	; 32
     b82:	b0 e0       	ldi	r27, 0x00	; 0
     b84:	e6 ec       	ldi	r30, 0xC6	; 198
     b86:	f5 e0       	ldi	r31, 0x05	; 5
     b88:	0c 94 a2 0a 	jmp	0x1544	; 0x1544 <__prologue_saves__+0x20>
     b8c:	6d 8f       	std	Y+29, r22	; 0x1d
     b8e:	7e 8f       	std	Y+30, r23	; 0x1e
     b90:	8f 8f       	std	Y+31, r24	; 0x1f
     b92:	98 a3       	std	Y+32, r25	; 0x20
     b94:	29 8f       	std	Y+25, r18	; 0x19
     b96:	3a 8f       	std	Y+26, r19	; 0x1a
     b98:	4b 8f       	std	Y+27, r20	; 0x1b
     b9a:	5c 8f       	std	Y+28, r21	; 0x1c
     b9c:	be 01       	movw	r22, r28
     b9e:	6f 5e       	subi	r22, 0xEF	; 239
     ba0:	7f 4f       	sbci	r23, 0xFF	; 255
     ba2:	ce 01       	movw	r24, r28
     ba4:	4d 96       	adiw	r24, 0x1d	; 29
     ba6:	0e 94 12 09 	call	0x1224	; 0x1224 <__unpack_f>
     baa:	be 01       	movw	r22, r28
     bac:	67 5f       	subi	r22, 0xF7	; 247
     bae:	7f 4f       	sbci	r23, 0xFF	; 255
     bb0:	ce 01       	movw	r24, r28
     bb2:	49 96       	adiw	r24, 0x19	; 25
     bb4:	0e 94 12 09 	call	0x1224	; 0x1224 <__unpack_f>
     bb8:	ae 01       	movw	r20, r28
     bba:	4f 5f       	subi	r20, 0xFF	; 255
     bbc:	5f 4f       	sbci	r21, 0xFF	; 255
     bbe:	be 01       	movw	r22, r28
     bc0:	67 5f       	subi	r22, 0xF7	; 247
     bc2:	7f 4f       	sbci	r23, 0xFF	; 255
     bc4:	ce 01       	movw	r24, r28
     bc6:	41 96       	adiw	r24, 0x11	; 17
     bc8:	0e 94 6e 04 	call	0x8dc	; 0x8dc <_fpadd_parts>
     bcc:	0e 94 51 08 	call	0x10a2	; 0x10a2 <__pack_f>
     bd0:	a0 96       	adiw	r28, 0x20	; 32
     bd2:	e2 e0       	ldi	r30, 0x02	; 2
     bd4:	0c 94 be 0a 	jmp	0x157c	; 0x157c <__epilogue_restores__+0x20>

00000bd8 <__subsf3>:
     bd8:	a0 e2       	ldi	r26, 0x20	; 32
     bda:	b0 e0       	ldi	r27, 0x00	; 0
     bdc:	e2 ef       	ldi	r30, 0xF2	; 242
     bde:	f5 e0       	ldi	r31, 0x05	; 5
     be0:	0c 94 a2 0a 	jmp	0x1544	; 0x1544 <__prologue_saves__+0x20>
     be4:	6d 8f       	std	Y+29, r22	; 0x1d
     be6:	7e 8f       	std	Y+30, r23	; 0x1e
     be8:	8f 8f       	std	Y+31, r24	; 0x1f
     bea:	98 a3       	std	Y+32, r25	; 0x20
     bec:	29 8f       	std	Y+25, r18	; 0x19
     bee:	3a 8f       	std	Y+26, r19	; 0x1a
     bf0:	4b 8f       	std	Y+27, r20	; 0x1b
     bf2:	5c 8f       	std	Y+28, r21	; 0x1c
     bf4:	be 01       	movw	r22, r28
     bf6:	6f 5e       	subi	r22, 0xEF	; 239
     bf8:	7f 4f       	sbci	r23, 0xFF	; 255
     bfa:	ce 01       	movw	r24, r28
     bfc:	4d 96       	adiw	r24, 0x1d	; 29
     bfe:	0e 94 12 09 	call	0x1224	; 0x1224 <__unpack_f>
     c02:	be 01       	movw	r22, r28
     c04:	67 5f       	subi	r22, 0xF7	; 247
     c06:	7f 4f       	sbci	r23, 0xFF	; 255
     c08:	ce 01       	movw	r24, r28
     c0a:	49 96       	adiw	r24, 0x19	; 25
     c0c:	0e 94 12 09 	call	0x1224	; 0x1224 <__unpack_f>
     c10:	8a 85       	ldd	r24, Y+10	; 0x0a
     c12:	91 e0       	ldi	r25, 0x01	; 1
     c14:	89 27       	eor	r24, r25
     c16:	8a 87       	std	Y+10, r24	; 0x0a
     c18:	ae 01       	movw	r20, r28
     c1a:	4f 5f       	subi	r20, 0xFF	; 255
     c1c:	5f 4f       	sbci	r21, 0xFF	; 255
     c1e:	be 01       	movw	r22, r28
     c20:	67 5f       	subi	r22, 0xF7	; 247
     c22:	7f 4f       	sbci	r23, 0xFF	; 255
     c24:	ce 01       	movw	r24, r28
     c26:	41 96       	adiw	r24, 0x11	; 17
     c28:	0e 94 6e 04 	call	0x8dc	; 0x8dc <_fpadd_parts>
     c2c:	0e 94 51 08 	call	0x10a2	; 0x10a2 <__pack_f>
     c30:	a0 96       	adiw	r28, 0x20	; 32
     c32:	e2 e0       	ldi	r30, 0x02	; 2
     c34:	0c 94 be 0a 	jmp	0x157c	; 0x157c <__epilogue_restores__+0x20>

00000c38 <__mulsf3>:
     c38:	a0 e2       	ldi	r26, 0x20	; 32
     c3a:	b0 e0       	ldi	r27, 0x00	; 0
     c3c:	e2 e2       	ldi	r30, 0x22	; 34
     c3e:	f6 e0       	ldi	r31, 0x06	; 6
     c40:	0c 94 94 0a 	jmp	0x1528	; 0x1528 <__prologue_saves__+0x4>
     c44:	6d 8f       	std	Y+29, r22	; 0x1d
     c46:	7e 8f       	std	Y+30, r23	; 0x1e
     c48:	8f 8f       	std	Y+31, r24	; 0x1f
     c4a:	98 a3       	std	Y+32, r25	; 0x20
     c4c:	29 8f       	std	Y+25, r18	; 0x19
     c4e:	3a 8f       	std	Y+26, r19	; 0x1a
     c50:	4b 8f       	std	Y+27, r20	; 0x1b
     c52:	5c 8f       	std	Y+28, r21	; 0x1c
     c54:	be 01       	movw	r22, r28
     c56:	6f 5e       	subi	r22, 0xEF	; 239
     c58:	7f 4f       	sbci	r23, 0xFF	; 255
     c5a:	ce 01       	movw	r24, r28
     c5c:	4d 96       	adiw	r24, 0x1d	; 29
     c5e:	0e 94 12 09 	call	0x1224	; 0x1224 <__unpack_f>
     c62:	be 01       	movw	r22, r28
     c64:	67 5f       	subi	r22, 0xF7	; 247
     c66:	7f 4f       	sbci	r23, 0xFF	; 255
     c68:	ce 01       	movw	r24, r28
     c6a:	49 96       	adiw	r24, 0x19	; 25
     c6c:	0e 94 12 09 	call	0x1224	; 0x1224 <__unpack_f>
     c70:	99 89       	ldd	r25, Y+17	; 0x11
     c72:	92 30       	cpi	r25, 0x02	; 2
     c74:	08 f4       	brcc	.+2      	; 0xc78 <__mulsf3+0x40>
     c76:	12 c0       	rjmp	.+36     	; 0xc9c <__mulsf3+0x64>
     c78:	89 85       	ldd	r24, Y+9	; 0x09
     c7a:	82 30       	cpi	r24, 0x02	; 2
     c7c:	08 f4       	brcc	.+2      	; 0xc80 <__mulsf3+0x48>
     c7e:	1a c0       	rjmp	.+52     	; 0xcb4 <__mulsf3+0x7c>
     c80:	94 30       	cpi	r25, 0x04	; 4
     c82:	21 f4       	brne	.+8      	; 0xc8c <__mulsf3+0x54>
     c84:	82 30       	cpi	r24, 0x02	; 2
     c86:	09 f4       	brne	.+2      	; 0xc8a <__mulsf3+0x52>
     c88:	b4 c0       	rjmp	.+360    	; 0xdf2 <__mulsf3+0x1ba>
     c8a:	08 c0       	rjmp	.+16     	; 0xc9c <__mulsf3+0x64>
     c8c:	84 30       	cpi	r24, 0x04	; 4
     c8e:	21 f4       	brne	.+8      	; 0xc98 <__mulsf3+0x60>
     c90:	92 30       	cpi	r25, 0x02	; 2
     c92:	09 f4       	brne	.+2      	; 0xc96 <__mulsf3+0x5e>
     c94:	ae c0       	rjmp	.+348    	; 0xdf2 <__mulsf3+0x1ba>
     c96:	0e c0       	rjmp	.+28     	; 0xcb4 <__mulsf3+0x7c>
     c98:	92 30       	cpi	r25, 0x02	; 2
     c9a:	51 f4       	brne	.+20     	; 0xcb0 <__mulsf3+0x78>
     c9c:	81 e0       	ldi	r24, 0x01	; 1
     c9e:	2a 89       	ldd	r18, Y+18	; 0x12
     ca0:	9a 85       	ldd	r25, Y+10	; 0x0a
     ca2:	29 13       	cpse	r18, r25
     ca4:	01 c0       	rjmp	.+2      	; 0xca8 <__mulsf3+0x70>
     ca6:	80 e0       	ldi	r24, 0x00	; 0
     ca8:	8a 8b       	std	Y+18, r24	; 0x12
     caa:	ce 01       	movw	r24, r28
     cac:	41 96       	adiw	r24, 0x11	; 17
     cae:	a3 c0       	rjmp	.+326    	; 0xdf6 <__mulsf3+0x1be>
     cb0:	82 30       	cpi	r24, 0x02	; 2
     cb2:	51 f4       	brne	.+20     	; 0xcc8 <__mulsf3+0x90>
     cb4:	81 e0       	ldi	r24, 0x01	; 1
     cb6:	2a 89       	ldd	r18, Y+18	; 0x12
     cb8:	9a 85       	ldd	r25, Y+10	; 0x0a
     cba:	29 13       	cpse	r18, r25
     cbc:	01 c0       	rjmp	.+2      	; 0xcc0 <__mulsf3+0x88>
     cbe:	80 e0       	ldi	r24, 0x00	; 0
     cc0:	8a 87       	std	Y+10, r24	; 0x0a
     cc2:	ce 01       	movw	r24, r28
     cc4:	09 96       	adiw	r24, 0x09	; 9
     cc6:	97 c0       	rjmp	.+302    	; 0xdf6 <__mulsf3+0x1be>
     cc8:	8d 88       	ldd	r8, Y+21	; 0x15
     cca:	9e 88       	ldd	r9, Y+22	; 0x16
     ccc:	af 88       	ldd	r10, Y+23	; 0x17
     cce:	b8 8c       	ldd	r11, Y+24	; 0x18
     cd0:	0d 85       	ldd	r16, Y+13	; 0x0d
     cd2:	1e 85       	ldd	r17, Y+14	; 0x0e
     cd4:	2f 85       	ldd	r18, Y+15	; 0x0f
     cd6:	38 89       	ldd	r19, Y+16	; 0x10
     cd8:	e0 e2       	ldi	r30, 0x20	; 32
     cda:	f0 e0       	ldi	r31, 0x00	; 0
     cdc:	80 e0       	ldi	r24, 0x00	; 0
     cde:	90 e0       	ldi	r25, 0x00	; 0
     ce0:	dc 01       	movw	r26, r24
     ce2:	c1 2c       	mov	r12, r1
     ce4:	d1 2c       	mov	r13, r1
     ce6:	76 01       	movw	r14, r12
     ce8:	40 e0       	ldi	r20, 0x00	; 0
     cea:	50 e0       	ldi	r21, 0x00	; 0
     cec:	ba 01       	movw	r22, r20
     cee:	80 fe       	sbrs	r8, 0
     cf0:	18 c0       	rjmp	.+48     	; 0xd22 <__mulsf3+0xea>
     cf2:	40 0f       	add	r20, r16
     cf4:	51 1f       	adc	r21, r17
     cf6:	62 1f       	adc	r22, r18
     cf8:	73 1f       	adc	r23, r19
     cfa:	8c 0d       	add	r24, r12
     cfc:	9d 1d       	adc	r25, r13
     cfe:	ae 1d       	adc	r26, r14
     d00:	bf 1d       	adc	r27, r15
     d02:	41 2c       	mov	r4, r1
     d04:	51 2c       	mov	r5, r1
     d06:	32 01       	movw	r6, r4
     d08:	43 94       	inc	r4
     d0a:	40 17       	cp	r20, r16
     d0c:	51 07       	cpc	r21, r17
     d0e:	62 07       	cpc	r22, r18
     d10:	73 07       	cpc	r23, r19
     d12:	18 f0       	brcs	.+6      	; 0xd1a <__mulsf3+0xe2>
     d14:	41 2c       	mov	r4, r1
     d16:	51 2c       	mov	r5, r1
     d18:	32 01       	movw	r6, r4
     d1a:	84 0d       	add	r24, r4
     d1c:	95 1d       	adc	r25, r5
     d1e:	a6 1d       	adc	r26, r6
     d20:	b7 1d       	adc	r27, r7
     d22:	cc 0c       	add	r12, r12
     d24:	dd 1c       	adc	r13, r13
     d26:	ee 1c       	adc	r14, r14
     d28:	ff 1c       	adc	r15, r15
     d2a:	37 ff       	sbrs	r19, 7
     d2c:	02 c0       	rjmp	.+4      	; 0xd32 <__mulsf3+0xfa>
     d2e:	68 94       	set
     d30:	c0 f8       	bld	r12, 0
     d32:	00 0f       	add	r16, r16
     d34:	11 1f       	adc	r17, r17
     d36:	22 1f       	adc	r18, r18
     d38:	33 1f       	adc	r19, r19
     d3a:	b6 94       	lsr	r11
     d3c:	a7 94       	ror	r10
     d3e:	97 94       	ror	r9
     d40:	87 94       	ror	r8
     d42:	31 97       	sbiw	r30, 0x01	; 1
     d44:	a1 f6       	brne	.-88     	; 0xcee <__mulsf3+0xb6>
     d46:	2b 89       	ldd	r18, Y+19	; 0x13
     d48:	3c 89       	ldd	r19, Y+20	; 0x14
     d4a:	eb 85       	ldd	r30, Y+11	; 0x0b
     d4c:	fc 85       	ldd	r31, Y+12	; 0x0c
     d4e:	2e 0f       	add	r18, r30
     d50:	3f 1f       	adc	r19, r31
     d52:	2e 5f       	subi	r18, 0xFE	; 254
     d54:	3f 4f       	sbci	r19, 0xFF	; 255
     d56:	3c 83       	std	Y+4, r19	; 0x04
     d58:	2b 83       	std	Y+3, r18	; 0x03
     d5a:	21 e0       	ldi	r18, 0x01	; 1
     d5c:	ea 89       	ldd	r30, Y+18	; 0x12
     d5e:	3a 85       	ldd	r19, Y+10	; 0x0a
     d60:	e3 13       	cpse	r30, r19
     d62:	01 c0       	rjmp	.+2      	; 0xd66 <__mulsf3+0x12e>
     d64:	20 e0       	ldi	r18, 0x00	; 0
     d66:	2a 83       	std	Y+2, r18	; 0x02
     d68:	eb 81       	ldd	r30, Y+3	; 0x03
     d6a:	fc 81       	ldd	r31, Y+4	; 0x04
     d6c:	0c c0       	rjmp	.+24     	; 0xd86 <__mulsf3+0x14e>
     d6e:	80 ff       	sbrs	r24, 0
     d70:	05 c0       	rjmp	.+10     	; 0xd7c <__mulsf3+0x144>
     d72:	76 95       	lsr	r23
     d74:	67 95       	ror	r22
     d76:	57 95       	ror	r21
     d78:	47 95       	ror	r20
     d7a:	70 68       	ori	r23, 0x80	; 128
     d7c:	b6 95       	lsr	r27
     d7e:	a7 95       	ror	r26
     d80:	97 95       	ror	r25
     d82:	87 95       	ror	r24
     d84:	31 96       	adiw	r30, 0x01	; 1
     d86:	b7 fd       	sbrc	r27, 7
     d88:	f2 cf       	rjmp	.-28     	; 0xd6e <__mulsf3+0x136>
     d8a:	9f 01       	movw	r18, r30
     d8c:	0c c0       	rjmp	.+24     	; 0xda6 <__mulsf3+0x16e>
     d8e:	88 0f       	add	r24, r24
     d90:	99 1f       	adc	r25, r25
     d92:	aa 1f       	adc	r26, r26
     d94:	bb 1f       	adc	r27, r27
     d96:	77 fd       	sbrc	r23, 7
     d98:	81 60       	ori	r24, 0x01	; 1
     d9a:	44 0f       	add	r20, r20
     d9c:	55 1f       	adc	r21, r21
     d9e:	66 1f       	adc	r22, r22
     da0:	77 1f       	adc	r23, r23
     da2:	21 50       	subi	r18, 0x01	; 1
     da4:	31 09       	sbc	r19, r1
     da6:	00 97       	sbiw	r24, 0x00	; 0
     da8:	a1 05       	cpc	r26, r1
     daa:	e0 e4       	ldi	r30, 0x40	; 64
     dac:	be 07       	cpc	r27, r30
     dae:	78 f3       	brcs	.-34     	; 0xd8e <__mulsf3+0x156>
     db0:	2b 83       	std	Y+3, r18	; 0x03
     db2:	3c 83       	std	Y+4, r19	; 0x04
     db4:	8c 01       	movw	r16, r24
     db6:	9d 01       	movw	r18, r26
     db8:	0f 77       	andi	r16, 0x7F	; 127
     dba:	11 27       	eor	r17, r17
     dbc:	22 27       	eor	r18, r18
     dbe:	33 27       	eor	r19, r19
     dc0:	00 34       	cpi	r16, 0x40	; 64
     dc2:	11 05       	cpc	r17, r1
     dc4:	21 05       	cpc	r18, r1
     dc6:	31 05       	cpc	r19, r1
     dc8:	59 f4       	brne	.+22     	; 0xde0 <__mulsf3+0x1a8>
     dca:	87 fd       	sbrc	r24, 7
     dcc:	09 c0       	rjmp	.+18     	; 0xde0 <__mulsf3+0x1a8>
     dce:	45 2b       	or	r20, r21
     dd0:	46 2b       	or	r20, r22
     dd2:	47 2b       	or	r20, r23
     dd4:	29 f0       	breq	.+10     	; 0xde0 <__mulsf3+0x1a8>
     dd6:	80 5c       	subi	r24, 0xC0	; 192
     dd8:	9f 4f       	sbci	r25, 0xFF	; 255
     dda:	af 4f       	sbci	r26, 0xFF	; 255
     ddc:	bf 4f       	sbci	r27, 0xFF	; 255
     dde:	80 78       	andi	r24, 0x80	; 128
     de0:	8d 83       	std	Y+5, r24	; 0x05
     de2:	9e 83       	std	Y+6, r25	; 0x06
     de4:	af 83       	std	Y+7, r26	; 0x07
     de6:	b8 87       	std	Y+8, r27	; 0x08
     de8:	83 e0       	ldi	r24, 0x03	; 3
     dea:	89 83       	std	Y+1, r24	; 0x01
     dec:	ce 01       	movw	r24, r28
     dee:	01 96       	adiw	r24, 0x01	; 1
     df0:	02 c0       	rjmp	.+4      	; 0xdf6 <__mulsf3+0x1be>
     df2:	80 e6       	ldi	r24, 0x60	; 96
     df4:	90 e0       	ldi	r25, 0x00	; 0
     df6:	0e 94 51 08 	call	0x10a2	; 0x10a2 <__pack_f>
     dfa:	a0 96       	adiw	r28, 0x20	; 32
     dfc:	e0 e1       	ldi	r30, 0x10	; 16
     dfe:	0c 94 b0 0a 	jmp	0x1560	; 0x1560 <__epilogue_restores__+0x4>

00000e02 <__gtsf2>:
     e02:	a8 e1       	ldi	r26, 0x18	; 24
     e04:	b0 e0       	ldi	r27, 0x00	; 0
     e06:	e7 e0       	ldi	r30, 0x07	; 7
     e08:	f7 e0       	ldi	r31, 0x07	; 7
     e0a:	0c 94 a2 0a 	jmp	0x1544	; 0x1544 <__prologue_saves__+0x20>
     e0e:	6d 8b       	std	Y+21, r22	; 0x15
     e10:	7e 8b       	std	Y+22, r23	; 0x16
     e12:	8f 8b       	std	Y+23, r24	; 0x17
     e14:	98 8f       	std	Y+24, r25	; 0x18
     e16:	29 8b       	std	Y+17, r18	; 0x11
     e18:	3a 8b       	std	Y+18, r19	; 0x12
     e1a:	4b 8b       	std	Y+19, r20	; 0x13
     e1c:	5c 8b       	std	Y+20, r21	; 0x14
     e1e:	be 01       	movw	r22, r28
     e20:	67 5f       	subi	r22, 0xF7	; 247
     e22:	7f 4f       	sbci	r23, 0xFF	; 255
     e24:	ce 01       	movw	r24, r28
     e26:	45 96       	adiw	r24, 0x15	; 21
     e28:	0e 94 12 09 	call	0x1224	; 0x1224 <__unpack_f>
     e2c:	be 01       	movw	r22, r28
     e2e:	6f 5f       	subi	r22, 0xFF	; 255
     e30:	7f 4f       	sbci	r23, 0xFF	; 255
     e32:	ce 01       	movw	r24, r28
     e34:	41 96       	adiw	r24, 0x11	; 17
     e36:	0e 94 12 09 	call	0x1224	; 0x1224 <__unpack_f>
     e3a:	89 85       	ldd	r24, Y+9	; 0x09
     e3c:	82 30       	cpi	r24, 0x02	; 2
     e3e:	58 f0       	brcs	.+22     	; 0xe56 <__gtsf2+0x54>
     e40:	89 81       	ldd	r24, Y+1	; 0x01
     e42:	82 30       	cpi	r24, 0x02	; 2
     e44:	40 f0       	brcs	.+16     	; 0xe56 <__gtsf2+0x54>
     e46:	be 01       	movw	r22, r28
     e48:	6f 5f       	subi	r22, 0xFF	; 255
     e4a:	7f 4f       	sbci	r23, 0xFF	; 255
     e4c:	ce 01       	movw	r24, r28
     e4e:	09 96       	adiw	r24, 0x09	; 9
     e50:	0e 94 81 09 	call	0x1302	; 0x1302 <__fpcmp_parts_f>
     e54:	01 c0       	rjmp	.+2      	; 0xe58 <__gtsf2+0x56>
     e56:	8f ef       	ldi	r24, 0xFF	; 255
     e58:	68 96       	adiw	r28, 0x18	; 24
     e5a:	e2 e0       	ldi	r30, 0x02	; 2
     e5c:	0c 94 be 0a 	jmp	0x157c	; 0x157c <__epilogue_restores__+0x20>

00000e60 <__floatsisf>:
     e60:	a8 e0       	ldi	r26, 0x08	; 8
     e62:	b0 e0       	ldi	r27, 0x00	; 0
     e64:	e6 e3       	ldi	r30, 0x36	; 54
     e66:	f7 e0       	ldi	r31, 0x07	; 7
     e68:	0c 94 a0 0a 	jmp	0x1540	; 0x1540 <__prologue_saves__+0x1c>
     e6c:	23 e0       	ldi	r18, 0x03	; 3
     e6e:	29 83       	std	Y+1, r18	; 0x01
     e70:	8b 01       	movw	r16, r22
     e72:	9c 01       	movw	r18, r24
     e74:	00 27       	eor	r16, r16
     e76:	37 fd       	sbrc	r19, 7
     e78:	03 95       	inc	r16
     e7a:	11 27       	eor	r17, r17
     e7c:	22 27       	eor	r18, r18
     e7e:	33 27       	eor	r19, r19
     e80:	40 2f       	mov	r20, r16
     e82:	0a 83       	std	Y+2, r16	; 0x02
     e84:	61 15       	cp	r22, r1
     e86:	71 05       	cpc	r23, r1
     e88:	81 05       	cpc	r24, r1
     e8a:	91 05       	cpc	r25, r1
     e8c:	19 f4       	brne	.+6      	; 0xe94 <__floatsisf+0x34>
     e8e:	82 e0       	ldi	r24, 0x02	; 2
     e90:	89 83       	std	Y+1, r24	; 0x01
     e92:	35 c0       	rjmp	.+106    	; 0xefe <__floatsisf+0x9e>
     e94:	2e e1       	ldi	r18, 0x1E	; 30
     e96:	30 e0       	ldi	r19, 0x00	; 0
     e98:	3c 83       	std	Y+4, r19	; 0x04
     e9a:	2b 83       	std	Y+3, r18	; 0x03
     e9c:	44 23       	and	r20, r20
     e9e:	71 f0       	breq	.+28     	; 0xebc <__floatsisf+0x5c>
     ea0:	61 15       	cp	r22, r1
     ea2:	71 05       	cpc	r23, r1
     ea4:	81 05       	cpc	r24, r1
     ea6:	20 e8       	ldi	r18, 0x80	; 128
     ea8:	92 07       	cpc	r25, r18
     eaa:	71 f1       	breq	.+92     	; 0xf08 <__floatsisf+0xa8>
     eac:	00 27       	eor	r16, r16
     eae:	11 27       	eor	r17, r17
     eb0:	98 01       	movw	r18, r16
     eb2:	06 1b       	sub	r16, r22
     eb4:	17 0b       	sbc	r17, r23
     eb6:	28 0b       	sbc	r18, r24
     eb8:	39 0b       	sbc	r19, r25
     eba:	02 c0       	rjmp	.+4      	; 0xec0 <__floatsisf+0x60>
     ebc:	8b 01       	movw	r16, r22
     ebe:	9c 01       	movw	r18, r24
     ec0:	c9 01       	movw	r24, r18
     ec2:	b8 01       	movw	r22, r16
     ec4:	0e 94 c9 0a 	call	0x1592	; 0x1592 <__clzsi2>
     ec8:	01 97       	sbiw	r24, 0x01	; 1
     eca:	18 16       	cp	r1, r24
     ecc:	19 06       	cpc	r1, r25
     ece:	2c f0       	brlt	.+10     	; 0xeda <__floatsisf+0x7a>
     ed0:	0d 83       	std	Y+5, r16	; 0x05
     ed2:	1e 83       	std	Y+6, r17	; 0x06
     ed4:	2f 83       	std	Y+7, r18	; 0x07
     ed6:	38 87       	std	Y+8, r19	; 0x08
     ed8:	12 c0       	rjmp	.+36     	; 0xefe <__floatsisf+0x9e>
     eda:	08 2e       	mov	r0, r24
     edc:	04 c0       	rjmp	.+8      	; 0xee6 <__floatsisf+0x86>
     ede:	00 0f       	add	r16, r16
     ee0:	11 1f       	adc	r17, r17
     ee2:	22 1f       	adc	r18, r18
     ee4:	33 1f       	adc	r19, r19
     ee6:	0a 94       	dec	r0
     ee8:	d2 f7       	brpl	.-12     	; 0xede <__floatsisf+0x7e>
     eea:	0d 83       	std	Y+5, r16	; 0x05
     eec:	1e 83       	std	Y+6, r17	; 0x06
     eee:	2f 83       	std	Y+7, r18	; 0x07
     ef0:	38 87       	std	Y+8, r19	; 0x08
     ef2:	2e e1       	ldi	r18, 0x1E	; 30
     ef4:	30 e0       	ldi	r19, 0x00	; 0
     ef6:	28 1b       	sub	r18, r24
     ef8:	39 0b       	sbc	r19, r25
     efa:	3c 83       	std	Y+4, r19	; 0x04
     efc:	2b 83       	std	Y+3, r18	; 0x03
     efe:	ce 01       	movw	r24, r28
     f00:	01 96       	adiw	r24, 0x01	; 1
     f02:	0e 94 51 08 	call	0x10a2	; 0x10a2 <__pack_f>
     f06:	04 c0       	rjmp	.+8      	; 0xf10 <__floatsisf+0xb0>
     f08:	60 e0       	ldi	r22, 0x00	; 0
     f0a:	70 e0       	ldi	r23, 0x00	; 0
     f0c:	80 e0       	ldi	r24, 0x00	; 0
     f0e:	9f ec       	ldi	r25, 0xCF	; 207
     f10:	28 96       	adiw	r28, 0x08	; 8
     f12:	e4 e0       	ldi	r30, 0x04	; 4
     f14:	0c 94 bc 0a 	jmp	0x1578	; 0x1578 <__epilogue_restores__+0x1c>

00000f18 <__fixsfsi>:
     f18:	ac e0       	ldi	r26, 0x0C	; 12
     f1a:	b0 e0       	ldi	r27, 0x00	; 0
     f1c:	e2 e9       	ldi	r30, 0x92	; 146
     f1e:	f7 e0       	ldi	r31, 0x07	; 7
     f20:	0c 94 a0 0a 	jmp	0x1540	; 0x1540 <__prologue_saves__+0x1c>
     f24:	69 87       	std	Y+9, r22	; 0x09
     f26:	7a 87       	std	Y+10, r23	; 0x0a
     f28:	8b 87       	std	Y+11, r24	; 0x0b
     f2a:	9c 87       	std	Y+12, r25	; 0x0c
     f2c:	be 01       	movw	r22, r28
     f2e:	6f 5f       	subi	r22, 0xFF	; 255
     f30:	7f 4f       	sbci	r23, 0xFF	; 255
     f32:	ce 01       	movw	r24, r28
     f34:	09 96       	adiw	r24, 0x09	; 9
     f36:	0e 94 12 09 	call	0x1224	; 0x1224 <__unpack_f>
     f3a:	89 81       	ldd	r24, Y+1	; 0x01
     f3c:	82 30       	cpi	r24, 0x02	; 2
     f3e:	91 f1       	breq	.+100    	; 0xfa4 <__fixsfsi+0x8c>
     f40:	82 30       	cpi	r24, 0x02	; 2
     f42:	80 f1       	brcs	.+96     	; 0xfa4 <__fixsfsi+0x8c>
     f44:	84 30       	cpi	r24, 0x04	; 4
     f46:	41 f4       	brne	.+16     	; 0xf58 <__fixsfsi+0x40>
     f48:	8a 81       	ldd	r24, Y+2	; 0x02
     f4a:	88 23       	and	r24, r24
     f4c:	31 f1       	breq	.+76     	; 0xf9a <__fixsfsi+0x82>
     f4e:	00 e0       	ldi	r16, 0x00	; 0
     f50:	10 e0       	ldi	r17, 0x00	; 0
     f52:	20 e0       	ldi	r18, 0x00	; 0
     f54:	30 e8       	ldi	r19, 0x80	; 128
     f56:	29 c0       	rjmp	.+82     	; 0xfaa <__fixsfsi+0x92>
     f58:	2b 81       	ldd	r18, Y+3	; 0x03
     f5a:	3c 81       	ldd	r19, Y+4	; 0x04
     f5c:	37 fd       	sbrc	r19, 7
     f5e:	22 c0       	rjmp	.+68     	; 0xfa4 <__fixsfsi+0x8c>
     f60:	2f 31       	cpi	r18, 0x1F	; 31
     f62:	31 05       	cpc	r19, r1
     f64:	8c f7       	brge	.-30     	; 0xf48 <__fixsfsi+0x30>
     f66:	8e e1       	ldi	r24, 0x1E	; 30
     f68:	90 e0       	ldi	r25, 0x00	; 0
     f6a:	82 1b       	sub	r24, r18
     f6c:	93 0b       	sbc	r25, r19
     f6e:	0d 81       	ldd	r16, Y+5	; 0x05
     f70:	1e 81       	ldd	r17, Y+6	; 0x06
     f72:	2f 81       	ldd	r18, Y+7	; 0x07
     f74:	38 85       	ldd	r19, Y+8	; 0x08
     f76:	04 c0       	rjmp	.+8      	; 0xf80 <__fixsfsi+0x68>
     f78:	36 95       	lsr	r19
     f7a:	27 95       	ror	r18
     f7c:	17 95       	ror	r17
     f7e:	07 95       	ror	r16
     f80:	8a 95       	dec	r24
     f82:	d2 f7       	brpl	.-12     	; 0xf78 <__fixsfsi+0x60>
     f84:	8a 81       	ldd	r24, Y+2	; 0x02
     f86:	88 23       	and	r24, r24
     f88:	81 f0       	breq	.+32     	; 0xfaa <__fixsfsi+0x92>
     f8a:	30 95       	com	r19
     f8c:	20 95       	com	r18
     f8e:	10 95       	com	r17
     f90:	01 95       	neg	r16
     f92:	1f 4f       	sbci	r17, 0xFF	; 255
     f94:	2f 4f       	sbci	r18, 0xFF	; 255
     f96:	3f 4f       	sbci	r19, 0xFF	; 255
     f98:	08 c0       	rjmp	.+16     	; 0xfaa <__fixsfsi+0x92>
     f9a:	0f ef       	ldi	r16, 0xFF	; 255
     f9c:	1f ef       	ldi	r17, 0xFF	; 255
     f9e:	2f ef       	ldi	r18, 0xFF	; 255
     fa0:	3f e7       	ldi	r19, 0x7F	; 127
     fa2:	03 c0       	rjmp	.+6      	; 0xfaa <__fixsfsi+0x92>
     fa4:	00 e0       	ldi	r16, 0x00	; 0
     fa6:	10 e0       	ldi	r17, 0x00	; 0
     fa8:	98 01       	movw	r18, r16
     faa:	b8 01       	movw	r22, r16
     fac:	c9 01       	movw	r24, r18
     fae:	2c 96       	adiw	r28, 0x0c	; 12
     fb0:	e4 e0       	ldi	r30, 0x04	; 4
     fb2:	0c 94 bc 0a 	jmp	0x1578	; 0x1578 <__epilogue_restores__+0x1c>

00000fb6 <__floatunsisf>:
     fb6:	a8 e0       	ldi	r26, 0x08	; 8
     fb8:	b0 e0       	ldi	r27, 0x00	; 0
     fba:	e1 ee       	ldi	r30, 0xE1	; 225
     fbc:	f7 e0       	ldi	r31, 0x07	; 7
     fbe:	0c 94 9c 0a 	jmp	0x1538	; 0x1538 <__prologue_saves__+0x14>
     fc2:	8b 01       	movw	r16, r22
     fc4:	9c 01       	movw	r18, r24
     fc6:	1a 82       	std	Y+2, r1	; 0x02
     fc8:	61 15       	cp	r22, r1
     fca:	71 05       	cpc	r23, r1
     fcc:	81 05       	cpc	r24, r1
     fce:	91 05       	cpc	r25, r1
     fd0:	19 f4       	brne	.+6      	; 0xfd8 <__floatunsisf+0x22>
     fd2:	82 e0       	ldi	r24, 0x02	; 2
     fd4:	89 83       	std	Y+1, r24	; 0x01
     fd6:	5d c0       	rjmp	.+186    	; 0x1092 <__floatunsisf+0xdc>
     fd8:	83 e0       	ldi	r24, 0x03	; 3
     fda:	89 83       	std	Y+1, r24	; 0x01
     fdc:	4e e1       	ldi	r20, 0x1E	; 30
     fde:	50 e0       	ldi	r21, 0x00	; 0
     fe0:	5c 83       	std	Y+4, r21	; 0x04
     fe2:	4b 83       	std	Y+3, r20	; 0x03
     fe4:	c9 01       	movw	r24, r18
     fe6:	b8 01       	movw	r22, r16
     fe8:	0e 94 c9 0a 	call	0x1592	; 0x1592 <__clzsi2>
     fec:	01 97       	sbiw	r24, 0x01	; 1
     fee:	97 ff       	sbrs	r25, 7
     ff0:	39 c0       	rjmp	.+114    	; 0x1064 <__floatunsisf+0xae>
     ff2:	ee 27       	eor	r30, r30
     ff4:	ff 27       	eor	r31, r31
     ff6:	e8 1b       	sub	r30, r24
     ff8:	f9 0b       	sbc	r31, r25
     ffa:	41 e0       	ldi	r20, 0x01	; 1
     ffc:	50 e0       	ldi	r21, 0x00	; 0
     ffe:	60 e0       	ldi	r22, 0x00	; 0
    1000:	70 e0       	ldi	r23, 0x00	; 0
    1002:	0e 2e       	mov	r0, r30
    1004:	04 c0       	rjmp	.+8      	; 0x100e <__floatunsisf+0x58>
    1006:	44 0f       	add	r20, r20
    1008:	55 1f       	adc	r21, r21
    100a:	66 1f       	adc	r22, r22
    100c:	77 1f       	adc	r23, r23
    100e:	0a 94       	dec	r0
    1010:	d2 f7       	brpl	.-12     	; 0x1006 <__floatunsisf+0x50>
    1012:	41 50       	subi	r20, 0x01	; 1
    1014:	51 09       	sbc	r21, r1
    1016:	61 09       	sbc	r22, r1
    1018:	71 09       	sbc	r23, r1
    101a:	40 23       	and	r20, r16
    101c:	51 23       	and	r21, r17
    101e:	62 23       	and	r22, r18
    1020:	73 23       	and	r23, r19
    1022:	c1 2c       	mov	r12, r1
    1024:	d1 2c       	mov	r13, r1
    1026:	76 01       	movw	r14, r12
    1028:	c3 94       	inc	r12
    102a:	45 2b       	or	r20, r21
    102c:	46 2b       	or	r20, r22
    102e:	47 2b       	or	r20, r23
    1030:	19 f4       	brne	.+6      	; 0x1038 <__floatunsisf+0x82>
    1032:	c1 2c       	mov	r12, r1
    1034:	d1 2c       	mov	r13, r1
    1036:	76 01       	movw	r14, r12
    1038:	04 c0       	rjmp	.+8      	; 0x1042 <__floatunsisf+0x8c>
    103a:	36 95       	lsr	r19
    103c:	27 95       	ror	r18
    103e:	17 95       	ror	r17
    1040:	07 95       	ror	r16
    1042:	ea 95       	dec	r30
    1044:	d2 f7       	brpl	.-12     	; 0x103a <__floatunsisf+0x84>
    1046:	0c 29       	or	r16, r12
    1048:	1d 29       	or	r17, r13
    104a:	2e 29       	or	r18, r14
    104c:	3f 29       	or	r19, r15
    104e:	0d 83       	std	Y+5, r16	; 0x05
    1050:	1e 83       	std	Y+6, r17	; 0x06
    1052:	2f 83       	std	Y+7, r18	; 0x07
    1054:	38 87       	std	Y+8, r19	; 0x08
    1056:	2e e1       	ldi	r18, 0x1E	; 30
    1058:	30 e0       	ldi	r19, 0x00	; 0
    105a:	28 1b       	sub	r18, r24
    105c:	39 0b       	sbc	r19, r25
    105e:	3c 83       	std	Y+4, r19	; 0x04
    1060:	2b 83       	std	Y+3, r18	; 0x03
    1062:	17 c0       	rjmp	.+46     	; 0x1092 <__floatunsisf+0xdc>
    1064:	00 97       	sbiw	r24, 0x00	; 0
    1066:	29 f4       	brne	.+10     	; 0x1072 <__floatunsisf+0xbc>
    1068:	0d 83       	std	Y+5, r16	; 0x05
    106a:	1e 83       	std	Y+6, r17	; 0x06
    106c:	2f 83       	std	Y+7, r18	; 0x07
    106e:	38 87       	std	Y+8, r19	; 0x08
    1070:	10 c0       	rjmp	.+32     	; 0x1092 <__floatunsisf+0xdc>
    1072:	08 2e       	mov	r0, r24
    1074:	04 c0       	rjmp	.+8      	; 0x107e <__floatunsisf+0xc8>
    1076:	00 0f       	add	r16, r16
    1078:	11 1f       	adc	r17, r17
    107a:	22 1f       	adc	r18, r18
    107c:	33 1f       	adc	r19, r19
    107e:	0a 94       	dec	r0
    1080:	d2 f7       	brpl	.-12     	; 0x1076 <__floatunsisf+0xc0>
    1082:	0d 83       	std	Y+5, r16	; 0x05
    1084:	1e 83       	std	Y+6, r17	; 0x06
    1086:	2f 83       	std	Y+7, r18	; 0x07
    1088:	38 87       	std	Y+8, r19	; 0x08
    108a:	48 1b       	sub	r20, r24
    108c:	59 0b       	sbc	r21, r25
    108e:	5c 83       	std	Y+4, r21	; 0x04
    1090:	4b 83       	std	Y+3, r20	; 0x03
    1092:	ce 01       	movw	r24, r28
    1094:	01 96       	adiw	r24, 0x01	; 1
    1096:	0e 94 51 08 	call	0x10a2	; 0x10a2 <__pack_f>
    109a:	28 96       	adiw	r28, 0x08	; 8
    109c:	e8 e0       	ldi	r30, 0x08	; 8
    109e:	0c 94 b8 0a 	jmp	0x1570	; 0x1570 <__epilogue_restores__+0x14>

000010a2 <__pack_f>:
    10a2:	0f 93       	push	r16
    10a4:	1f 93       	push	r17
    10a6:	cf 93       	push	r28
    10a8:	fc 01       	movw	r30, r24
    10aa:	44 81       	ldd	r20, Z+4	; 0x04
    10ac:	55 81       	ldd	r21, Z+5	; 0x05
    10ae:	66 81       	ldd	r22, Z+6	; 0x06
    10b0:	77 81       	ldd	r23, Z+7	; 0x07
    10b2:	c1 81       	ldd	r28, Z+1	; 0x01
    10b4:	80 81       	ld	r24, Z
    10b6:	82 30       	cpi	r24, 0x02	; 2
    10b8:	20 f4       	brcc	.+8      	; 0x10c2 <__pack_f+0x20>
    10ba:	60 61       	ori	r22, 0x10	; 16
    10bc:	8f ef       	ldi	r24, 0xFF	; 255
    10be:	90 e0       	ldi	r25, 0x00	; 0
    10c0:	a3 c0       	rjmp	.+326    	; 0x1208 <__pack_f+0x166>
    10c2:	84 30       	cpi	r24, 0x04	; 4
    10c4:	09 f4       	brne	.+2      	; 0x10c8 <__pack_f+0x26>
    10c6:	9b c0       	rjmp	.+310    	; 0x11fe <__pack_f+0x15c>
    10c8:	82 30       	cpi	r24, 0x02	; 2
    10ca:	09 f4       	brne	.+2      	; 0x10ce <__pack_f+0x2c>
    10cc:	92 c0       	rjmp	.+292    	; 0x11f2 <__pack_f+0x150>
    10ce:	41 15       	cp	r20, r1
    10d0:	51 05       	cpc	r21, r1
    10d2:	61 05       	cpc	r22, r1
    10d4:	71 05       	cpc	r23, r1
    10d6:	09 f4       	brne	.+2      	; 0x10da <__pack_f+0x38>
    10d8:	8f c0       	rjmp	.+286    	; 0x11f8 <__pack_f+0x156>
    10da:	22 81       	ldd	r18, Z+2	; 0x02
    10dc:	33 81       	ldd	r19, Z+3	; 0x03
    10de:	22 38       	cpi	r18, 0x82	; 130
    10e0:	8f ef       	ldi	r24, 0xFF	; 255
    10e2:	38 07       	cpc	r19, r24
    10e4:	0c f0       	brlt	.+2      	; 0x10e8 <__pack_f+0x46>
    10e6:	57 c0       	rjmp	.+174    	; 0x1196 <__pack_f+0xf4>
    10e8:	e2 e8       	ldi	r30, 0x82	; 130
    10ea:	ff ef       	ldi	r31, 0xFF	; 255
    10ec:	e2 1b       	sub	r30, r18
    10ee:	f3 0b       	sbc	r31, r19
    10f0:	ea 31       	cpi	r30, 0x1A	; 26
    10f2:	f1 05       	cpc	r31, r1
    10f4:	64 f5       	brge	.+88     	; 0x114e <__pack_f+0xac>
    10f6:	8a 01       	movw	r16, r20
    10f8:	9b 01       	movw	r18, r22
    10fa:	0e 2e       	mov	r0, r30
    10fc:	04 c0       	rjmp	.+8      	; 0x1106 <__pack_f+0x64>
    10fe:	36 95       	lsr	r19
    1100:	27 95       	ror	r18
    1102:	17 95       	ror	r17
    1104:	07 95       	ror	r16
    1106:	0a 94       	dec	r0
    1108:	d2 f7       	brpl	.-12     	; 0x10fe <__pack_f+0x5c>
    110a:	81 e0       	ldi	r24, 0x01	; 1
    110c:	90 e0       	ldi	r25, 0x00	; 0
    110e:	a0 e0       	ldi	r26, 0x00	; 0
    1110:	b0 e0       	ldi	r27, 0x00	; 0
    1112:	04 c0       	rjmp	.+8      	; 0x111c <__pack_f+0x7a>
    1114:	88 0f       	add	r24, r24
    1116:	99 1f       	adc	r25, r25
    1118:	aa 1f       	adc	r26, r26
    111a:	bb 1f       	adc	r27, r27
    111c:	ea 95       	dec	r30
    111e:	d2 f7       	brpl	.-12     	; 0x1114 <__pack_f+0x72>
    1120:	01 97       	sbiw	r24, 0x01	; 1
    1122:	a1 09       	sbc	r26, r1
    1124:	b1 09       	sbc	r27, r1
    1126:	84 23       	and	r24, r20
    1128:	95 23       	and	r25, r21
    112a:	a6 23       	and	r26, r22
    112c:	b7 23       	and	r27, r23
    112e:	41 e0       	ldi	r20, 0x01	; 1
    1130:	50 e0       	ldi	r21, 0x00	; 0
    1132:	60 e0       	ldi	r22, 0x00	; 0
    1134:	70 e0       	ldi	r23, 0x00	; 0
    1136:	89 2b       	or	r24, r25
    1138:	8a 2b       	or	r24, r26
    113a:	8b 2b       	or	r24, r27
    113c:	19 f4       	brne	.+6      	; 0x1144 <__pack_f+0xa2>
    113e:	40 e0       	ldi	r20, 0x00	; 0
    1140:	50 e0       	ldi	r21, 0x00	; 0
    1142:	ba 01       	movw	r22, r20
    1144:	40 2b       	or	r20, r16
    1146:	51 2b       	or	r21, r17
    1148:	62 2b       	or	r22, r18
    114a:	73 2b       	or	r23, r19
    114c:	03 c0       	rjmp	.+6      	; 0x1154 <__pack_f+0xb2>
    114e:	40 e0       	ldi	r20, 0x00	; 0
    1150:	50 e0       	ldi	r21, 0x00	; 0
    1152:	ba 01       	movw	r22, r20
    1154:	db 01       	movw	r26, r22
    1156:	ca 01       	movw	r24, r20
    1158:	8f 77       	andi	r24, 0x7F	; 127
    115a:	99 27       	eor	r25, r25
    115c:	aa 27       	eor	r26, r26
    115e:	bb 27       	eor	r27, r27
    1160:	80 34       	cpi	r24, 0x40	; 64
    1162:	91 05       	cpc	r25, r1
    1164:	a1 05       	cpc	r26, r1
    1166:	b1 05       	cpc	r27, r1
    1168:	39 f4       	brne	.+14     	; 0x1178 <__pack_f+0xd6>
    116a:	47 ff       	sbrs	r20, 7
    116c:	09 c0       	rjmp	.+18     	; 0x1180 <__pack_f+0xde>
    116e:	40 5c       	subi	r20, 0xC0	; 192
    1170:	5f 4f       	sbci	r21, 0xFF	; 255
    1172:	6f 4f       	sbci	r22, 0xFF	; 255
    1174:	7f 4f       	sbci	r23, 0xFF	; 255
    1176:	04 c0       	rjmp	.+8      	; 0x1180 <__pack_f+0xde>
    1178:	41 5c       	subi	r20, 0xC1	; 193
    117a:	5f 4f       	sbci	r21, 0xFF	; 255
    117c:	6f 4f       	sbci	r22, 0xFF	; 255
    117e:	7f 4f       	sbci	r23, 0xFF	; 255
    1180:	81 e0       	ldi	r24, 0x01	; 1
    1182:	90 e0       	ldi	r25, 0x00	; 0
    1184:	41 15       	cp	r20, r1
    1186:	51 05       	cpc	r21, r1
    1188:	61 05       	cpc	r22, r1
    118a:	20 e4       	ldi	r18, 0x40	; 64
    118c:	72 07       	cpc	r23, r18
    118e:	48 f5       	brcc	.+82     	; 0x11e2 <__pack_f+0x140>
    1190:	80 e0       	ldi	r24, 0x00	; 0
    1192:	90 e0       	ldi	r25, 0x00	; 0
    1194:	26 c0       	rjmp	.+76     	; 0x11e2 <__pack_f+0x140>
    1196:	20 38       	cpi	r18, 0x80	; 128
    1198:	31 05       	cpc	r19, r1
    119a:	8c f5       	brge	.+98     	; 0x11fe <__pack_f+0x15c>
    119c:	db 01       	movw	r26, r22
    119e:	ca 01       	movw	r24, r20
    11a0:	8f 77       	andi	r24, 0x7F	; 127
    11a2:	99 27       	eor	r25, r25
    11a4:	aa 27       	eor	r26, r26
    11a6:	bb 27       	eor	r27, r27
    11a8:	80 34       	cpi	r24, 0x40	; 64
    11aa:	91 05       	cpc	r25, r1
    11ac:	a1 05       	cpc	r26, r1
    11ae:	b1 05       	cpc	r27, r1
    11b0:	39 f4       	brne	.+14     	; 0x11c0 <__pack_f+0x11e>
    11b2:	47 ff       	sbrs	r20, 7
    11b4:	09 c0       	rjmp	.+18     	; 0x11c8 <__pack_f+0x126>
    11b6:	40 5c       	subi	r20, 0xC0	; 192
    11b8:	5f 4f       	sbci	r21, 0xFF	; 255
    11ba:	6f 4f       	sbci	r22, 0xFF	; 255
    11bc:	7f 4f       	sbci	r23, 0xFF	; 255
    11be:	04 c0       	rjmp	.+8      	; 0x11c8 <__pack_f+0x126>
    11c0:	41 5c       	subi	r20, 0xC1	; 193
    11c2:	5f 4f       	sbci	r21, 0xFF	; 255
    11c4:	6f 4f       	sbci	r22, 0xFF	; 255
    11c6:	7f 4f       	sbci	r23, 0xFF	; 255
    11c8:	77 fd       	sbrc	r23, 7
    11ca:	04 c0       	rjmp	.+8      	; 0x11d4 <__pack_f+0x132>
    11cc:	c9 01       	movw	r24, r18
    11ce:	81 58       	subi	r24, 0x81	; 129
    11d0:	9f 4f       	sbci	r25, 0xFF	; 255
    11d2:	07 c0       	rjmp	.+14     	; 0x11e2 <__pack_f+0x140>
    11d4:	76 95       	lsr	r23
    11d6:	67 95       	ror	r22
    11d8:	57 95       	ror	r21
    11da:	47 95       	ror	r20
    11dc:	c9 01       	movw	r24, r18
    11de:	80 58       	subi	r24, 0x80	; 128
    11e0:	9f 4f       	sbci	r25, 0xFF	; 255
    11e2:	97 e0       	ldi	r25, 0x07	; 7
    11e4:	76 95       	lsr	r23
    11e6:	67 95       	ror	r22
    11e8:	57 95       	ror	r21
    11ea:	47 95       	ror	r20
    11ec:	9a 95       	dec	r25
    11ee:	d1 f7       	brne	.-12     	; 0x11e4 <__pack_f+0x142>
    11f0:	0b c0       	rjmp	.+22     	; 0x1208 <__pack_f+0x166>
    11f2:	80 e0       	ldi	r24, 0x00	; 0
    11f4:	90 e0       	ldi	r25, 0x00	; 0
    11f6:	05 c0       	rjmp	.+10     	; 0x1202 <__pack_f+0x160>
    11f8:	80 e0       	ldi	r24, 0x00	; 0
    11fa:	90 e0       	ldi	r25, 0x00	; 0
    11fc:	05 c0       	rjmp	.+10     	; 0x1208 <__pack_f+0x166>
    11fe:	8f ef       	ldi	r24, 0xFF	; 255
    1200:	90 e0       	ldi	r25, 0x00	; 0
    1202:	40 e0       	ldi	r20, 0x00	; 0
    1204:	50 e0       	ldi	r21, 0x00	; 0
    1206:	ba 01       	movw	r22, r20
    1208:	98 2f       	mov	r25, r24
    120a:	96 95       	lsr	r25
    120c:	c0 fb       	bst	r28, 0
    120e:	97 f9       	bld	r25, 7
    1210:	36 2f       	mov	r19, r22
    1212:	80 fb       	bst	r24, 0
    1214:	37 f9       	bld	r19, 7
    1216:	64 2f       	mov	r22, r20
    1218:	75 2f       	mov	r23, r21
    121a:	83 2f       	mov	r24, r19
    121c:	cf 91       	pop	r28
    121e:	1f 91       	pop	r17
    1220:	0f 91       	pop	r16
    1222:	08 95       	ret

00001224 <__unpack_f>:
    1224:	cf 92       	push	r12
    1226:	df 92       	push	r13
    1228:	ef 92       	push	r14
    122a:	dc 01       	movw	r26, r24
    122c:	fb 01       	movw	r30, r22
    122e:	cc 90       	ld	r12, X
    1230:	11 96       	adiw	r26, 0x01	; 1
    1232:	dc 90       	ld	r13, X
    1234:	11 97       	sbiw	r26, 0x01	; 1
    1236:	12 96       	adiw	r26, 0x02	; 2
    1238:	8c 91       	ld	r24, X
    123a:	12 97       	sbiw	r26, 0x02	; 2
    123c:	3f e7       	ldi	r19, 0x7F	; 127
    123e:	e3 2e       	mov	r14, r19
    1240:	e8 22       	and	r14, r24
    1242:	6e 2d       	mov	r22, r14
    1244:	a6 01       	movw	r20, r12
    1246:	70 e0       	ldi	r23, 0x00	; 0
    1248:	98 2f       	mov	r25, r24
    124a:	99 1f       	adc	r25, r25
    124c:	99 27       	eor	r25, r25
    124e:	99 1f       	adc	r25, r25
    1250:	13 96       	adiw	r26, 0x03	; 3
    1252:	2c 91       	ld	r18, X
    1254:	82 2f       	mov	r24, r18
    1256:	88 0f       	add	r24, r24
    1258:	89 2b       	or	r24, r25
    125a:	90 e0       	ldi	r25, 0x00	; 0
    125c:	27 fb       	bst	r18, 7
    125e:	22 27       	eor	r18, r18
    1260:	20 f9       	bld	r18, 0
    1262:	21 83       	std	Z+1, r18	; 0x01
    1264:	00 97       	sbiw	r24, 0x00	; 0
    1266:	29 f5       	brne	.+74     	; 0x12b2 <__unpack_f+0x8e>
    1268:	41 15       	cp	r20, r1
    126a:	51 05       	cpc	r21, r1
    126c:	61 05       	cpc	r22, r1
    126e:	71 05       	cpc	r23, r1
    1270:	11 f4       	brne	.+4      	; 0x1276 <__unpack_f+0x52>
    1272:	82 e0       	ldi	r24, 0x02	; 2
    1274:	27 c0       	rjmp	.+78     	; 0x12c4 <__unpack_f+0xa0>
    1276:	82 e8       	ldi	r24, 0x82	; 130
    1278:	9f ef       	ldi	r25, 0xFF	; 255
    127a:	93 83       	std	Z+3, r25	; 0x03
    127c:	82 83       	std	Z+2, r24	; 0x02
    127e:	27 e0       	ldi	r18, 0x07	; 7
    1280:	44 0f       	add	r20, r20
    1282:	55 1f       	adc	r21, r21
    1284:	66 1f       	adc	r22, r22
    1286:	77 1f       	adc	r23, r23
    1288:	2a 95       	dec	r18
    128a:	d1 f7       	brne	.-12     	; 0x1280 <__unpack_f+0x5c>
    128c:	83 e0       	ldi	r24, 0x03	; 3
    128e:	80 83       	st	Z, r24
    1290:	09 c0       	rjmp	.+18     	; 0x12a4 <__unpack_f+0x80>
    1292:	44 0f       	add	r20, r20
    1294:	55 1f       	adc	r21, r21
    1296:	66 1f       	adc	r22, r22
    1298:	77 1f       	adc	r23, r23
    129a:	82 81       	ldd	r24, Z+2	; 0x02
    129c:	93 81       	ldd	r25, Z+3	; 0x03
    129e:	01 97       	sbiw	r24, 0x01	; 1
    12a0:	93 83       	std	Z+3, r25	; 0x03
    12a2:	82 83       	std	Z+2, r24	; 0x02
    12a4:	41 15       	cp	r20, r1
    12a6:	51 05       	cpc	r21, r1
    12a8:	61 05       	cpc	r22, r1
    12aa:	80 e4       	ldi	r24, 0x40	; 64
    12ac:	78 07       	cpc	r23, r24
    12ae:	88 f3       	brcs	.-30     	; 0x1292 <__unpack_f+0x6e>
    12b0:	20 c0       	rjmp	.+64     	; 0x12f2 <__unpack_f+0xce>
    12b2:	8f 3f       	cpi	r24, 0xFF	; 255
    12b4:	91 05       	cpc	r25, r1
    12b6:	79 f4       	brne	.+30     	; 0x12d6 <__unpack_f+0xb2>
    12b8:	41 15       	cp	r20, r1
    12ba:	51 05       	cpc	r21, r1
    12bc:	61 05       	cpc	r22, r1
    12be:	71 05       	cpc	r23, r1
    12c0:	19 f4       	brne	.+6      	; 0x12c8 <__unpack_f+0xa4>
    12c2:	84 e0       	ldi	r24, 0x04	; 4
    12c4:	80 83       	st	Z, r24
    12c6:	19 c0       	rjmp	.+50     	; 0x12fa <__unpack_f+0xd6>
    12c8:	e4 fe       	sbrs	r14, 4
    12ca:	03 c0       	rjmp	.+6      	; 0x12d2 <__unpack_f+0xae>
    12cc:	81 e0       	ldi	r24, 0x01	; 1
    12ce:	80 83       	st	Z, r24
    12d0:	10 c0       	rjmp	.+32     	; 0x12f2 <__unpack_f+0xce>
    12d2:	10 82       	st	Z, r1
    12d4:	0e c0       	rjmp	.+28     	; 0x12f2 <__unpack_f+0xce>
    12d6:	8f 57       	subi	r24, 0x7F	; 127
    12d8:	91 09       	sbc	r25, r1
    12da:	93 83       	std	Z+3, r25	; 0x03
    12dc:	82 83       	std	Z+2, r24	; 0x02
    12de:	83 e0       	ldi	r24, 0x03	; 3
    12e0:	80 83       	st	Z, r24
    12e2:	87 e0       	ldi	r24, 0x07	; 7
    12e4:	44 0f       	add	r20, r20
    12e6:	55 1f       	adc	r21, r21
    12e8:	66 1f       	adc	r22, r22
    12ea:	77 1f       	adc	r23, r23
    12ec:	8a 95       	dec	r24
    12ee:	d1 f7       	brne	.-12     	; 0x12e4 <__unpack_f+0xc0>
    12f0:	70 64       	ori	r23, 0x40	; 64
    12f2:	44 83       	std	Z+4, r20	; 0x04
    12f4:	55 83       	std	Z+5, r21	; 0x05
    12f6:	66 83       	std	Z+6, r22	; 0x06
    12f8:	77 83       	std	Z+7, r23	; 0x07
    12fa:	ef 90       	pop	r14
    12fc:	df 90       	pop	r13
    12fe:	cf 90       	pop	r12
    1300:	08 95       	ret

00001302 <__fpcmp_parts_f>:
    1302:	cf 93       	push	r28
    1304:	fc 01       	movw	r30, r24
    1306:	db 01       	movw	r26, r22
    1308:	90 81       	ld	r25, Z
    130a:	92 30       	cpi	r25, 0x02	; 2
    130c:	08 f4       	brcc	.+2      	; 0x1310 <__fpcmp_parts_f+0xe>
    130e:	52 c0       	rjmp	.+164    	; 0x13b4 <__fpcmp_parts_f+0xb2>
    1310:	8c 91       	ld	r24, X
    1312:	82 30       	cpi	r24, 0x02	; 2
    1314:	08 f4       	brcc	.+2      	; 0x1318 <__fpcmp_parts_f+0x16>
    1316:	4e c0       	rjmp	.+156    	; 0x13b4 <__fpcmp_parts_f+0xb2>
    1318:	94 30       	cpi	r25, 0x04	; 4
    131a:	71 f4       	brne	.+28     	; 0x1338 <__fpcmp_parts_f+0x36>
    131c:	84 30       	cpi	r24, 0x04	; 4
    131e:	39 f4       	brne	.+14     	; 0x132e <__fpcmp_parts_f+0x2c>
    1320:	11 96       	adiw	r26, 0x01	; 1
    1322:	2c 91       	ld	r18, X
    1324:	30 e0       	ldi	r19, 0x00	; 0
    1326:	81 81       	ldd	r24, Z+1	; 0x01
    1328:	28 1b       	sub	r18, r24
    132a:	31 09       	sbc	r19, r1
    132c:	48 c0       	rjmp	.+144    	; 0x13be <__fpcmp_parts_f+0xbc>
    132e:	81 81       	ldd	r24, Z+1	; 0x01
    1330:	88 23       	and	r24, r24
    1332:	09 f4       	brne	.+2      	; 0x1336 <__fpcmp_parts_f+0x34>
    1334:	3f c0       	rjmp	.+126    	; 0x13b4 <__fpcmp_parts_f+0xb2>
    1336:	3b c0       	rjmp	.+118    	; 0x13ae <__fpcmp_parts_f+0xac>
    1338:	84 30       	cpi	r24, 0x04	; 4
    133a:	29 f4       	brne	.+10     	; 0x1346 <__fpcmp_parts_f+0x44>
    133c:	11 96       	adiw	r26, 0x01	; 1
    133e:	8c 91       	ld	r24, X
    1340:	81 11       	cpse	r24, r1
    1342:	38 c0       	rjmp	.+112    	; 0x13b4 <__fpcmp_parts_f+0xb2>
    1344:	34 c0       	rjmp	.+104    	; 0x13ae <__fpcmp_parts_f+0xac>
    1346:	92 30       	cpi	r25, 0x02	; 2
    1348:	19 f4       	brne	.+6      	; 0x1350 <__fpcmp_parts_f+0x4e>
    134a:	82 30       	cpi	r24, 0x02	; 2
    134c:	b9 f7       	brne	.-18     	; 0x133c <__fpcmp_parts_f+0x3a>
    134e:	35 c0       	rjmp	.+106    	; 0x13ba <__fpcmp_parts_f+0xb8>
    1350:	82 30       	cpi	r24, 0x02	; 2
    1352:	69 f3       	breq	.-38     	; 0x132e <__fpcmp_parts_f+0x2c>
    1354:	c1 81       	ldd	r28, Z+1	; 0x01
    1356:	11 96       	adiw	r26, 0x01	; 1
    1358:	8c 91       	ld	r24, X
    135a:	11 97       	sbiw	r26, 0x01	; 1
    135c:	c8 13       	cpse	r28, r24
    135e:	1d c0       	rjmp	.+58     	; 0x139a <__fpcmp_parts_f+0x98>
    1360:	22 81       	ldd	r18, Z+2	; 0x02
    1362:	33 81       	ldd	r19, Z+3	; 0x03
    1364:	12 96       	adiw	r26, 0x02	; 2
    1366:	8d 91       	ld	r24, X+
    1368:	9c 91       	ld	r25, X
    136a:	13 97       	sbiw	r26, 0x03	; 3
    136c:	82 17       	cp	r24, r18
    136e:	93 07       	cpc	r25, r19
    1370:	0c f4       	brge	.+2      	; 0x1374 <__fpcmp_parts_f+0x72>
    1372:	13 c0       	rjmp	.+38     	; 0x139a <__fpcmp_parts_f+0x98>
    1374:	28 17       	cp	r18, r24
    1376:	39 07       	cpc	r19, r25
    1378:	0c f4       	brge	.+2      	; 0x137c <__fpcmp_parts_f+0x7a>
    137a:	17 c0       	rjmp	.+46     	; 0x13aa <__fpcmp_parts_f+0xa8>
    137c:	44 81       	ldd	r20, Z+4	; 0x04
    137e:	55 81       	ldd	r21, Z+5	; 0x05
    1380:	66 81       	ldd	r22, Z+6	; 0x06
    1382:	77 81       	ldd	r23, Z+7	; 0x07
    1384:	14 96       	adiw	r26, 0x04	; 4
    1386:	8d 91       	ld	r24, X+
    1388:	9d 91       	ld	r25, X+
    138a:	0d 90       	ld	r0, X+
    138c:	bc 91       	ld	r27, X
    138e:	a0 2d       	mov	r26, r0
    1390:	84 17       	cp	r24, r20
    1392:	95 07       	cpc	r25, r21
    1394:	a6 07       	cpc	r26, r22
    1396:	b7 07       	cpc	r27, r23
    1398:	18 f4       	brcc	.+6      	; 0x13a0 <__fpcmp_parts_f+0x9e>
    139a:	c1 11       	cpse	r28, r1
    139c:	08 c0       	rjmp	.+16     	; 0x13ae <__fpcmp_parts_f+0xac>
    139e:	0a c0       	rjmp	.+20     	; 0x13b4 <__fpcmp_parts_f+0xb2>
    13a0:	48 17       	cp	r20, r24
    13a2:	59 07       	cpc	r21, r25
    13a4:	6a 07       	cpc	r22, r26
    13a6:	7b 07       	cpc	r23, r27
    13a8:	40 f4       	brcc	.+16     	; 0x13ba <__fpcmp_parts_f+0xb8>
    13aa:	c1 11       	cpse	r28, r1
    13ac:	03 c0       	rjmp	.+6      	; 0x13b4 <__fpcmp_parts_f+0xb2>
    13ae:	2f ef       	ldi	r18, 0xFF	; 255
    13b0:	3f ef       	ldi	r19, 0xFF	; 255
    13b2:	05 c0       	rjmp	.+10     	; 0x13be <__fpcmp_parts_f+0xbc>
    13b4:	21 e0       	ldi	r18, 0x01	; 1
    13b6:	30 e0       	ldi	r19, 0x00	; 0
    13b8:	02 c0       	rjmp	.+4      	; 0x13be <__fpcmp_parts_f+0xbc>
    13ba:	20 e0       	ldi	r18, 0x00	; 0
    13bc:	30 e0       	ldi	r19, 0x00	; 0
    13be:	c9 01       	movw	r24, r18
    13c0:	cf 91       	pop	r28
    13c2:	08 95       	ret

000013c4 <main>:
    13c4:	0e 94 49 00 	call	0x92	; 0x92 <ADC_init>
    13c8:	82 e0       	ldi	r24, 0x02	; 2
    13ca:	0e 94 d7 03 	call	0x7ae	; 0x7ae <InitLCD>
    13ce:	60 e0       	ldi	r22, 0x00	; 0
    13d0:	81 e0       	ldi	r24, 0x01	; 1
    13d2:	0e 94 ac 03 	call	0x758	; 0x758 <LCDByte>
    13d6:	87 e2       	ldi	r24, 0x27	; 39
    13d8:	91 e0       	ldi	r25, 0x01	; 1
    13da:	0e 94 0e 04 	call	0x81c	; 0x81c <LCDWriteString>
    13de:	2f ef       	ldi	r18, 0xFF	; 255
    13e0:	87 ea       	ldi	r24, 0xA7	; 167
    13e2:	91 e6       	ldi	r25, 0x61	; 97
    13e4:	21 50       	subi	r18, 0x01	; 1
    13e6:	80 40       	sbci	r24, 0x00	; 0
    13e8:	90 40       	sbci	r25, 0x00	; 0
    13ea:	e1 f7       	brne	.-8      	; 0x13e4 <main+0x20>
    13ec:	00 c0       	rjmp	.+0      	; 0x13ee <main+0x2a>
    13ee:	00 00       	nop
    13f0:	60 e0       	ldi	r22, 0x00	; 0
    13f2:	81 e0       	ldi	r24, 0x01	; 1
    13f4:	0e 94 ac 03 	call	0x758	; 0x758 <LCDByte>
    13f8:	0e 94 4b 01 	call	0x296	; 0x296 <init_usart>
    13fc:	0e 94 84 00 	call	0x108	; 0x108 <mot_init>
    1400:	0e 94 f1 00 	call	0x1e2	; 0x1e2 <SPI_init>
    1404:	86 e1       	ldi	r24, 0x16	; 22
    1406:	90 e0       	ldi	r25, 0x00	; 0
    1408:	0e 94 ff 00 	call	0x1fe	; 0x1fe <servo>
    140c:	0e 94 68 02 	call	0x4d0	; 0x4d0 <get_lcd_instructions>
    1410:	80 91 40 01 	lds	r24, 0x0140
    1414:	90 91 41 01 	lds	r25, 0x0141
    1418:	83 30       	cpi	r24, 0x03	; 3
    141a:	91 05       	cpc	r25, r1
    141c:	b9 f0       	breq	.+46     	; 0x144c <main+0x88>
    141e:	3c f4       	brge	.+14     	; 0x142e <main+0x6a>
    1420:	81 30       	cpi	r24, 0x01	; 1
    1422:	91 05       	cpc	r25, r1
    1424:	79 f0       	breq	.+30     	; 0x1444 <main+0x80>
    1426:	84 f4       	brge	.+32     	; 0x1448 <main+0x84>
    1428:	89 2b       	or	r24, r25
    142a:	51 f0       	breq	.+20     	; 0x1440 <main+0x7c>
    142c:	ef cf       	rjmp	.-34     	; 0x140c <main+0x48>
    142e:	86 30       	cpi	r24, 0x06	; 6
    1430:	91 05       	cpc	r25, r1
    1432:	81 f0       	breq	.+32     	; 0x1454 <main+0x90>
    1434:	88 30       	cpi	r24, 0x08	; 8
    1436:	91 05       	cpc	r25, r1
    1438:	d9 f1       	breq	.+118    	; 0x14b0 <main+0xec>
    143a:	05 97       	sbiw	r24, 0x05	; 5
    143c:	39 f7       	brne	.-50     	; 0x140c <main+0x48>
    143e:	08 c0       	rjmp	.+16     	; 0x1450 <main+0x8c>
    1440:	0e 94 84 01 	call	0x308	; 0x308 <vyhybejse>
    1444:	0e 94 f0 02 	call	0x5e0	; 0x5e0 <testline>
    1448:	0e 94 cb 00 	call	0x196	; 0x196 <motpwmtest>
    144c:	0e 94 5c 01 	call	0x2b8	; 0x2b8 <servotest>
    1450:	0e 94 a6 02 	call	0x54c	; 0x54c <test>
    1454:	87 e0       	ldi	r24, 0x07	; 7
    1456:	90 e0       	ldi	r25, 0x00	; 0
    1458:	0e 94 4e 00 	call	0x9c	; 0x9c <readADC>
    145c:	0e 94 8c 07 	call	0xf18	; 0xf18 <__fixsfsi>
    1460:	88 27       	eor	r24, r24
    1462:	77 fd       	sbrc	r23, 7
    1464:	80 95       	com	r24
    1466:	98 2f       	mov	r25, r24
    1468:	0e 94 30 07 	call	0xe60	; 0xe60 <__floatsisf>
    146c:	28 e4       	ldi	r18, 0x48	; 72
    146e:	31 ee       	ldi	r19, 0xE1	; 225
    1470:	4e e2       	ldi	r20, 0x2E	; 46
    1472:	50 e4       	ldi	r21, 0x40	; 64
    1474:	0e 94 ec 05 	call	0xbd8	; 0xbd8 <__subsf3>
    1478:	20 e0       	ldi	r18, 0x00	; 0
    147a:	30 e0       	ldi	r19, 0x00	; 0
    147c:	48 ec       	ldi	r20, 0xC8	; 200
    147e:	52 e4       	ldi	r21, 0x42	; 66
    1480:	0e 94 1c 06 	call	0xc38	; 0xc38 <__mulsf3>
    1484:	0e 94 8c 07 	call	0xf18	; 0xf18 <__fixsfsi>
    1488:	dc 01       	movw	r26, r24
    148a:	cb 01       	movw	r24, r22
    148c:	63 e0       	ldi	r22, 0x03	; 3
    148e:	70 e0       	ldi	r23, 0x00	; 0
    1490:	0e 94 1b 04 	call	0x836	; 0x836 <LCDWriteInt>
    1494:	2f ef       	ldi	r18, 0xFF	; 255
    1496:	89 ef       	ldi	r24, 0xF9	; 249
    1498:	90 e0       	ldi	r25, 0x00	; 0
    149a:	21 50       	subi	r18, 0x01	; 1
    149c:	80 40       	sbci	r24, 0x00	; 0
    149e:	90 40       	sbci	r25, 0x00	; 0
    14a0:	e1 f7       	brne	.-8      	; 0x149a <main+0xd6>
    14a2:	00 c0       	rjmp	.+0      	; 0x14a4 <main+0xe0>
    14a4:	00 00       	nop
    14a6:	60 e0       	ldi	r22, 0x00	; 0
    14a8:	81 e0       	ldi	r24, 0x01	; 1
    14aa:	0e 94 ac 03 	call	0x758	; 0x758 <LCDByte>
    14ae:	d2 cf       	rjmp	.-92     	; 0x1454 <main+0x90>
    14b0:	81 e3       	ldi	r24, 0x31	; 49
    14b2:	91 e0       	ldi	r25, 0x01	; 1
    14b4:	0e 94 0e 04 	call	0x81c	; 0x81c <LCDWriteString>
    14b8:	2f ef       	ldi	r18, 0xFF	; 255
    14ba:	89 ef       	ldi	r24, 0xF9	; 249
    14bc:	90 e0       	ldi	r25, 0x00	; 0
    14be:	21 50       	subi	r18, 0x01	; 1
    14c0:	80 40       	sbci	r24, 0x00	; 0
    14c2:	90 40       	sbci	r25, 0x00	; 0
    14c4:	e1 f7       	brne	.-8      	; 0x14be <main+0xfa>
    14c6:	00 c0       	rjmp	.+0      	; 0x14c8 <main+0x104>
    14c8:	00 00       	nop
    14ca:	60 e0       	ldi	r22, 0x00	; 0
    14cc:	81 e0       	ldi	r24, 0x01	; 1
    14ce:	0e 94 ac 03 	call	0x758	; 0x758 <LCDByte>
    14d2:	ee cf       	rjmp	.-36     	; 0x14b0 <main+0xec>

000014d4 <__divmodhi4>:
    14d4:	97 fb       	bst	r25, 7
    14d6:	07 2e       	mov	r0, r23
    14d8:	16 f4       	brtc	.+4      	; 0x14de <__divmodhi4+0xa>
    14da:	00 94       	com	r0
    14dc:	07 d0       	rcall	.+14     	; 0x14ec <__divmodhi4_neg1>
    14de:	77 fd       	sbrc	r23, 7
    14e0:	09 d0       	rcall	.+18     	; 0x14f4 <__divmodhi4_neg2>
    14e2:	0e 94 7e 0a 	call	0x14fc	; 0x14fc <__udivmodhi4>
    14e6:	07 fc       	sbrc	r0, 7
    14e8:	05 d0       	rcall	.+10     	; 0x14f4 <__divmodhi4_neg2>
    14ea:	3e f4       	brtc	.+14     	; 0x14fa <__divmodhi4_exit>

000014ec <__divmodhi4_neg1>:
    14ec:	90 95       	com	r25
    14ee:	81 95       	neg	r24
    14f0:	9f 4f       	sbci	r25, 0xFF	; 255
    14f2:	08 95       	ret

000014f4 <__divmodhi4_neg2>:
    14f4:	70 95       	com	r23
    14f6:	61 95       	neg	r22
    14f8:	7f 4f       	sbci	r23, 0xFF	; 255

000014fa <__divmodhi4_exit>:
    14fa:	08 95       	ret

000014fc <__udivmodhi4>:
    14fc:	aa 1b       	sub	r26, r26
    14fe:	bb 1b       	sub	r27, r27
    1500:	51 e1       	ldi	r21, 0x11	; 17
    1502:	07 c0       	rjmp	.+14     	; 0x1512 <__udivmodhi4_ep>

00001504 <__udivmodhi4_loop>:
    1504:	aa 1f       	adc	r26, r26
    1506:	bb 1f       	adc	r27, r27
    1508:	a6 17       	cp	r26, r22
    150a:	b7 07       	cpc	r27, r23
    150c:	10 f0       	brcs	.+4      	; 0x1512 <__udivmodhi4_ep>
    150e:	a6 1b       	sub	r26, r22
    1510:	b7 0b       	sbc	r27, r23

00001512 <__udivmodhi4_ep>:
    1512:	88 1f       	adc	r24, r24
    1514:	99 1f       	adc	r25, r25
    1516:	5a 95       	dec	r21
    1518:	a9 f7       	brne	.-22     	; 0x1504 <__udivmodhi4_loop>
    151a:	80 95       	com	r24
    151c:	90 95       	com	r25
    151e:	bc 01       	movw	r22, r24
    1520:	cd 01       	movw	r24, r26
    1522:	08 95       	ret

00001524 <__prologue_saves__>:
    1524:	2f 92       	push	r2
    1526:	3f 92       	push	r3
    1528:	4f 92       	push	r4
    152a:	5f 92       	push	r5
    152c:	6f 92       	push	r6
    152e:	7f 92       	push	r7
    1530:	8f 92       	push	r8
    1532:	9f 92       	push	r9
    1534:	af 92       	push	r10
    1536:	bf 92       	push	r11
    1538:	cf 92       	push	r12
    153a:	df 92       	push	r13
    153c:	ef 92       	push	r14
    153e:	ff 92       	push	r15
    1540:	0f 93       	push	r16
    1542:	1f 93       	push	r17
    1544:	cf 93       	push	r28
    1546:	df 93       	push	r29
    1548:	cd b7       	in	r28, 0x3d	; 61
    154a:	de b7       	in	r29, 0x3e	; 62
    154c:	ca 1b       	sub	r28, r26
    154e:	db 0b       	sbc	r29, r27
    1550:	0f b6       	in	r0, 0x3f	; 63
    1552:	f8 94       	cli
    1554:	de bf       	out	0x3e, r29	; 62
    1556:	0f be       	out	0x3f, r0	; 63
    1558:	cd bf       	out	0x3d, r28	; 61
    155a:	09 94       	ijmp

0000155c <__epilogue_restores__>:
    155c:	2a 88       	ldd	r2, Y+18	; 0x12
    155e:	39 88       	ldd	r3, Y+17	; 0x11
    1560:	48 88       	ldd	r4, Y+16	; 0x10
    1562:	5f 84       	ldd	r5, Y+15	; 0x0f
    1564:	6e 84       	ldd	r6, Y+14	; 0x0e
    1566:	7d 84       	ldd	r7, Y+13	; 0x0d
    1568:	8c 84       	ldd	r8, Y+12	; 0x0c
    156a:	9b 84       	ldd	r9, Y+11	; 0x0b
    156c:	aa 84       	ldd	r10, Y+10	; 0x0a
    156e:	b9 84       	ldd	r11, Y+9	; 0x09
    1570:	c8 84       	ldd	r12, Y+8	; 0x08
    1572:	df 80       	ldd	r13, Y+7	; 0x07
    1574:	ee 80       	ldd	r14, Y+6	; 0x06
    1576:	fd 80       	ldd	r15, Y+5	; 0x05
    1578:	0c 81       	ldd	r16, Y+4	; 0x04
    157a:	1b 81       	ldd	r17, Y+3	; 0x03
    157c:	aa 81       	ldd	r26, Y+2	; 0x02
    157e:	b9 81       	ldd	r27, Y+1	; 0x01
    1580:	ce 0f       	add	r28, r30
    1582:	d1 1d       	adc	r29, r1
    1584:	0f b6       	in	r0, 0x3f	; 63
    1586:	f8 94       	cli
    1588:	de bf       	out	0x3e, r29	; 62
    158a:	0f be       	out	0x3f, r0	; 63
    158c:	cd bf       	out	0x3d, r28	; 61
    158e:	ed 01       	movw	r28, r26
    1590:	08 95       	ret

00001592 <__clzsi2>:
    1592:	0e 94 d2 0a 	call	0x15a4	; 0x15a4 <__clzhi2>
    1596:	84 ff       	sbrs	r24, 4
    1598:	08 95       	ret
    159a:	cb 01       	movw	r24, r22
    159c:	0e 94 d2 0a 	call	0x15a4	; 0x15a4 <__clzhi2>
    15a0:	80 5f       	subi	r24, 0xF0	; 240
    15a2:	08 95       	ret

000015a4 <__clzhi2>:
    15a4:	aa 27       	eor	r26, r26
    15a6:	99 23       	and	r25, r25
    15a8:	29 f4       	brne	.+10     	; 0x15b4 <__clzhi2+0x10>
    15aa:	a8 5f       	subi	r26, 0xF8	; 248
    15ac:	98 2b       	or	r25, r24
    15ae:	11 f4       	brne	.+4      	; 0x15b4 <__clzhi2+0x10>
    15b0:	80 e1       	ldi	r24, 0x10	; 16
    15b2:	08 95       	ret
    15b4:	90 31       	cpi	r25, 0x10	; 16
    15b6:	18 f4       	brcc	.+6      	; 0x15be <__clzhi2+0x1a>
    15b8:	ad 5f       	subi	r26, 0xFD	; 253
    15ba:	92 95       	swap	r25
    15bc:	a3 95       	inc	r26
    15be:	99 0f       	add	r25, r25
    15c0:	e8 f7       	brcc	.-6      	; 0x15bc <__clzhi2+0x18>
    15c2:	8a 2f       	mov	r24, r26
    15c4:	99 27       	eor	r25, r25
    15c6:	08 95       	ret

000015c8 <_exit>:
    15c8:	f8 94       	cli

000015ca <__stop_program>:
    15ca:	ff cf       	rjmp	.-2      	; 0x15ca <__stop_program>
